

Microchip MPLAB XC8 Assembler V2.36 build 20220127204148 
                                                                                               Thu Feb 02 10:36:06 2023

Microchip MPLAB XC8 C Compiler v2.36 (Free license) build 20220127204148 Og1 
     1                           	processor	18F57Q43
     2                           	fnconf	rparam,??,?,0
     3                           	pagewidth 120
     4                           	opt	flic
     5                           	psect	smallconst,global,reloc=2,class=SMALLCONST,delta=1,noexec
     6                           	psect	nvBANK5,global,class=BANK5,space=1,delta=1,lowdata,noexec
     7                           	psect	cinit,global,reloc=2,class=CODE,delta=1
     8                           	psect	bssCOMRAM,global,class=COMRAM,space=1,delta=1,lowdata,noexec
     9                           	psect	bssBANK5,global,class=BANK5,space=1,delta=1,lowdata,noexec
    10                           	psect	bssBANK6,global,class=BANK6,space=1,delta=1,lowdata,noexec
    11                           	psect	cstackBANK5,global,class=BANK5,space=1,delta=1,lowdata,noexec
    12                           	psect	cstackCOMRAM,global,class=COMRAM,space=1,delta=1,lowdata,noexec
    13                           	psect	text0,global,reloc=2,class=CODE,delta=1
    14                           	psect	text1,global,reloc=2,class=CODE,delta=1,group=2
    15                           	psect	text2,global,reloc=2,class=CODE,delta=1,group=2
    16                           	psect	text3,global,reloc=2,class=CODE,delta=1,group=2
    17                           	psect	text4,global,reloc=2,class=CODE,delta=1,group=2
    18                           	psect	text5,global,reloc=2,class=CODE,delta=1,group=1
    19                           	psect	text6,global,reloc=2,class=CODE,delta=1,group=1
    20                           	psect	text7,global,reloc=2,class=CODE,delta=1,group=1
    21                           	psect	text8,global,reloc=2,class=CODE,delta=1,group=1
    22                           	psect	text9,global,reloc=2,class=CODE,delta=1,group=2
    23                           	psect	text10,global,reloc=2,class=CODE,delta=1,group=1
    24                           	psect	text11,global,reloc=2,class=CODE,delta=1,group=1
    25                           	psect	text12,global,reloc=2,class=CODE,delta=1
    26                           	psect	text13,global,reloc=2,class=CODE,delta=1
    27                           	psect	text14,global,reloc=2,class=CODE,delta=1
    28                           	psect	text15,global,reloc=2,class=CODE,delta=1
    29                           	psect	text16,global,reloc=2,class=CODE,delta=1
    30                           	psect	text17,global,reloc=2,class=CODE,delta=1
    31                           	psect	text18,global,reloc=2,class=CODE,delta=1
    32                           	psect	text19,global,reloc=2,class=CODE,delta=1
    33                           	psect	text20,global,reloc=2,class=CODE,delta=1
    34                           	psect	text21,global,reloc=2,class=CODE,delta=1
    35                           	psect	text22,global,reloc=2,class=CODE,delta=1
    36                           	psect	text23,global,reloc=2,class=CODE,delta=1
    37                           	psect	text24,global,reloc=2,class=CODE,delta=1
    38                           	psect	text25,global,reloc=2,class=CODE,delta=1
    39                           	psect	text26,global,reloc=2,class=CODE,delta=1
    40                           	psect	text27,global,reloc=2,class=CODE,delta=1
    41                           	psect	text28,global,reloc=2,class=CODE,delta=1
    42                           	psect	text29,global,reloc=2,class=CODE,delta=1
    43                           	psect	ivt0x8,global,reloc=2,class=CODE,delta=1,noexec,keep,optim=
    44                           	psect	intsave_regs,global,class=BIGRAM,space=1,delta=1,noexec
    45                           	psect	text30,global,reloc=2,class=CODE,delta=1
    46                           	psect	rparam,global,class=COMRAM,space=1,delta=1,noexec
    47                           	psect	idloc,global,abs,ovrld,class=IDLOC,space=5,delta=1,noexec
    48                           	psect	config,global,abs,ovrld,class=CONFIG,space=4,delta=1,noexec
    49  0000                     
    50                           ; Version 2.40
    51                           ; Generated 08/12/2021 GMT
    52                           ; 
    53                           ; Copyright © 2021, Microchip Technology Inc. and its subsidiaries ("Microchip")
    54                           ; All rights reserved.
    55                           ; 
    56                           ; This software is developed by Microchip Technology Inc. and its subsidiaries ("Microch
      +                          ip").
    57                           ; 
    58                           ; Redistribution and use in source and binary forms, with or without modification, are
    59                           ; permitted provided that the following conditions are met:
    60                           ; 
    61                           ;     1. Redistributions of source code must retain the above copyright notice, this lis
      +                          t of
    62                           ;        conditions and the following disclaimer.
    63                           ; 
    64                           ;     2. Redistributions in binary form must reproduce the above copyright notice, this 
      +                          list
    65                           ;        of conditions and the following disclaimer in the documentation and/or other
    66                           ;        materials provided with the distribution. Publication is not required when
    67                           ;        this file is used in an embedded application.
    68                           ; 
    69                           ;     3. Microchip's name may not be used to endorse or promote products derived from th
      +                          is
    70                           ;        software without specific prior written permission.
    71                           ; 
    72                           ; THIS SOFTWARE IS PROVIDED BY MICROCHIP "AS IS" AND ANY EXPRESS OR IMPLIED WARRANTIES,
    73                           ; INCLUDING, BUT NOT LIMITED TO, THE IMPLIED WARRANTIES OF MERCHANTABILITY AND FITNESS F
      +                          OR
    74                           ; PURPOSE ARE DISCLAIMED.  IN NO EVENT SHALL MICROCHIP BE LIABLE FOR ANY DIRECT, INDIREC
      +                          T,
    75                           ; INCIDENTAL, SPECIAL, EXEMPLARY, OR CONSEQUENTIAL DAMAGES (INCLUDING BUT NOT LIMITED TO
    76                           ; PROCUREMENT OF SUBSTITUTE GOODS OR SERVICES; LOSS OF USE, DATA OR PROFITS; OR BUSINESS
    77                           ; INTERRUPTION) HOWSOEVER CAUSED AND ON ANY THEORY OF LIABILITY, WHETHER IN CONTRACT, ST
      +                          RICT
    78                           ; LIABILITY, OR TORT (INCLUDING NEGLIGENCE OR OTHERWISE) ARISING IN ANY WAY OUT OF THE U
      +                          SE OF
    79                           ; THIS SOFTWARE, EVEN IF ADVISED OF THE POSSIBILITY OF SUCH DAMAGE.
    80                           ; 
    81                           ; 
    82                           ; Code-generator required, PIC18F57Q43 Definitions
    83                           ; 
    84                           ; SFR Addresses
    85  0000                     
    86                           	psect	smallconst
    87  002500                     __psmallconst:
    88                           	callstack 0
    89  002500  00                 	db	0
    90  002501                     _spi1_configuration:
    91                           	callstack 0
    92  002501  02                 	db	2
    93  002502  40                 	db	64
    94  002503  00                 	db	0
    95  002504  03                 	db	3
    96  002505  00                 	db	0
    97  002506                     __end_of_spi1_configuration:
    98                           	callstack 0
    99  002506  6C3C               	dw	27708
   100  002508  3636               	dw	13878
   101  00250A                     __end_of_S4:
   102                           	callstack 0
   103  00250A  07CF               	dw	1999
   104  00250C  B950               	dw	47440
   105  00250E                     __end_of_S3:
   106                           	callstack 0
   107  00250E  8884               	dw	34948
   108  002510  3C08               	dw	15368
   109  002512                     __end_of_S2:
   110                           	callstack 0
   111  002512  AAAB               	dw	43691
   112  002514  BE2A               	dw	48682
   113  002516                     __end_of_S1:
   114                           	callstack 0
   115  002516  85A3               	dw	34211
   116  002518  3288               	dw	12936
   117  00251A                     __end_of_pio2_1t:
   118                           	callstack 0
   119  00251A  0FDA               	dw	4058
   120  00251C  3FC9               	dw	16329
   121  00251E                     __end_of_pio2_1:
   122                           	callstack 0
   123  00251E  F983               	dw	63875
   124  002520  3F22               	dw	16162
   125  002522                     __end_of_invpio2:
   126                           	callstack 0
   127  002522  0000               	dw	0
   128  002524  3F00               	dw	16128
   129  002526                     __end_of_half:
   130                           	callstack 0
   131  002526  0000               	dw	0
   132  002528  4B40               	dw	19264
   133  00252A                     __end_of_toint:
   134                           	callstack 0
   135  00252A  9A17               	dw	39447
   136  00252C  37CC               	dw	14284
   137  00252E                     __end_of_C3:
   138                           	callstack 0
   139  00252E  043F               	dw	1087
   140  002530  BAB6               	dw	47798
   141  002532                     __end_of_C2:
   142                           	callstack 0
   143  002532  AA9F               	dw	43679
   144  002534  3D2A               	dw	15658
   145  002536                     __end_of_C1:
   146                           	callstack 0
   147  002536  0000               	dw	0
   148  002538  BF00               	dw	48896
   149  00253A                     __end_of_C0:
   150                           	callstack 0
   151  00253A  0FDB               	dw	4059
   152  00253C  40C9               	dw	16585
   153  00253E                     __end_of_s4pio2:
   154                           	callstack 0
   155  00253E  CBE4               	dw	52196
   156  002540  4096               	dw	16534
   157  002542                     __end_of_s3pio2:
   158                           	callstack 0
   159  002542  0FDB               	dw	4059
   160  002544  4049               	dw	16457
   161  002546                     __end_of_s2pio2:
   162                           	callstack 0
   163  002546  0FDB               	dw	4059
   164  002548  3FC9               	dw	16329
   165  00254A                     __end_of_s1pio2:
   166                           	callstack 0
   167  0000                     _ADERRL	set	989
   168  0000                     _ADERRH	set	990
   169  0000                     _ADPREVL	set	1000
   170  0000                     _ADPREVH	set	1001
   171  0000                     _ADFLTRL	set	993
   172  0000                     _ADFLTRH	set	994
   173  0000                     _ADACCL	set	995
   174  0000                     _ADACCH	set	996
   175  0000                     _ADCNT	set	998
   176  0000                     _ADRESL	set	1002
   177  0000                     _ADRESH	set	1003
   178  0000                     _ADCON0	set	1011
   179  0000                     _ADCON1	set	1012
   180  0000                     _ADPREH	set	1010
   181  0000                     _ADPREL	set	1009
   182  0000                     _ADCAP	set	1008
   183  0000                     _ADACQH	set	1007
   184  0000                     _ADPCH	set	1004
   185  0000                     _ADRPT	set	999
   186  0000                     _ADACCU	set	997
   187  0000                     _ADSTPTH	set	992
   188  0000                     _ADSTPTL	set	991
   189  0000                     _ADUTHH	set	988
   190  0000                     _ADUTHL	set	987
   191  0000                     _ADLTHH	set	986
   192  0000                     _TRISD	set	1225
   193  0000                     _TRISC	set	1224
   194  0000                     _TRISB	set	1223
   195  0000                     _LATC	set	1216
   196  0000                     _LATB	set	1215
   197  0000                     _OSCTUNE	set	176
   198  0000                     _OSCFRQ	set	177
   199  0000                     _OSCEN	set	179
   200  0000                     _T2CON	set	804
   201  00254A  00                 	db	0	; dummy byte at the end
   202  0000                     
   203                           	psect	nvBANK5
   204  0005D3                     __pnvBANK5:
   205                           	callstack 0
   206  0005D3                     _TMR2_InterruptHandler:
   207                           	callstack 0
   208  0005D3                     	ds	3
   209  0000                     _SPI1CON0bits	set	132
   210  0000                     _ADCON1bits	set	1012
   211  0000                     _ADSTATbits	set	1015
   212  0000                     _ADCON2bits	set	1013
   213  0000                     _ADCON3bits	set	1014
   214  0000                     _ADCON0bits	set	1011
   215  0000                     _PR2	set	803
   216  0000                     _TMR2	set	802
   217  0000                     _T2CONbits	set	804
   218  0000                     _T2RSTbits	set	807
   219  0000                     _T2HLTbits	set	805
   220  0000                     _LATFbits	set	1219
   221  0000                     _LATDbits	set	1217
   222  0000                     _TRISCbits	set	1224
   223  0000                     _PMD0	set	96
   224  0000                     _ACTCON	set	172
   225  0000                     _OSCCON1	set	173
   226  0000                     _T2TMR	set	802
   227  0000                     _T2PR	set	803
   228  0000                     _T2HLT	set	805
   229  0000                     _T2CLKCON	set	806
   230  0000                     _ADLTHL	set	985
   231  0000                     _ANSELA	set	1024
   232  0000                     _ANSELB	set	1032
   233  0000                     _ANSELC	set	1040
   234  0000                     _ANSELD	set	1048
   235  0000                     _PIE3bits	set	1185
   236  0000                     _PIR3bits	set	1201
   237  0000                     _T2RST	set	807
   238  0000                     _LATA	set	1214
   239  0000                     _LATD	set	1217
   240  0000                     _LATE	set	1218
   241  0000                     _OSCCON3	set	175
   242  0000                     _RC4PPS	set	533
   243  0000                     _SPI1SCKPPS	set	618
   244  0000                     _RC4I2C	set	646
   245  0000                     _RC3I2C	set	647
   246  0000                     _RB2I2C	set	648
   247  0000                     _RB1I2C	set	649
   248  0000                     _PMD3	set	99
   249  0000                     _PMD1	set	97
   250  0000                     _SPI1RXB	set	128
   251  0000                     _SPI1TXB	set	129
   252  0000                     _SPI1TCNTL	set	130
   253  0000                     _SPI1CON0	set	132
   254  0000                     _PMD8	set	104
   255  0000                     _PMD7	set	103
   256  0000                     _PMD6	set	102
   257  0000                     _PMD5	set	101
   258  0000                     _PMD4	set	100
   259  0000                     _TRISA	set	1222
   260  0000                     _TRISE	set	1226
   261  0000                     _LATF	set	1219
   262  0000                     _INTCON0bits	set	1238
   263  0000                     _TRISF	set	1227
   264  0000                     _INLVLD	set	1052
   265  0000                     _SLRCOND	set	1051
   266  0000                     _ODCOND	set	1050
   267  0000                     _WPUD	set	1049
   268  0000                     _ANSELE	set	1056
   269  0000                     _INLVLC	set	1044
   270  0000                     _SLRCONC	set	1043
   271  0000                     _ODCONC	set	1042
   272  0000                     _WPUC	set	1041
   273  0000                     _INLVLB	set	1036
   274  0000                     _SLRCONB	set	1035
   275  0000                     _ODCONB	set	1034
   276  0000                     _WPUB	set	1033
   277  0000                     _INLVLE	set	1060
   278  0000                     _SLRCONE	set	1059
   279  0000                     _ODCONE	set	1058
   280  0000                     _WPUE	set	1057
   281  0000                     _ANSELF	set	1064
   282  0000                     _INLVLF	set	1068
   283  0000                     _SLRCONF	set	1067
   284  0000                     _ODCONF	set	1066
   285  0000                     _WPUF	set	1065
   286  0000                     _INLVLA	set	1028
   287  0000                     _SLRCONA	set	1027
   288  0000                     _ODCONA	set	1026
   289  0000                     _WPUA	set	1025
   290  0000                     _SPI1SDIPPS	set	619
   291  0000                     _RC6PPS	set	535
   292  0000                     _SPI1BAUD	set	137
   293  0000                     _SPI1CLK	set	140
   294  0000                     _SPI1CON2	set	134
   295  0000                     _SPI1CON1	set	133
   296  0000                     _ADACQL	set	1006
   297  0000                     _ADCLK	set	1018
   298  0000                     _ADACT	set	1017
   299  0000                     _ADREF	set	1016
   300  0000                     _ADSTAT	set	1015
   301  0000                     _ADCON3	set	1014
   302  0000                     _ADCON2	set	1013
   303                           
   304                           ; #config settings
   305                           
   306                           	psect	cinit
   307  00432E                     __pcinit:
   308                           	callstack 0
   309  00432E                     start_initialization:
   310                           	callstack 0
   311  00432E                     __initialization:
   312                           	callstack 0
   313                           
   314                           ; Clear objects allocated to BANK6 (256 bytes)
   315  00432E  EE01  F200         	lfsr	0,__pbssBANK6
   316  004332  EE10 F100          	lfsr	1,256
   317  004336                     clear_0:
   318  004336  6AEE               	clrf	postinc0,c
   319  004338  50E5               	movf	postdec1,w,c
   320  00433A  50E1               	movf	fsr1l,w,c
   321  00433C  E1FC               	bnz	clear_0
   322  00433E  50E2               	movf	fsr1h,w,c
   323  004340  E1FA               	bnz	clear_0
   324                           
   325                           ; Clear objects allocated to BANK5 (9 bytes)
   326  004342  EE01  F1CA         	lfsr	0,__pbssBANK5
   327  004346  0E09               	movlw	9
   328  004348                     clear_1:
   329  004348  6AEE               	clrf	postinc0,c
   330  00434A  06E8               	decf	wreg,f,c
   331  00434C  E1FD               	bnz	clear_1
   332                           
   333                           ; Clear objects allocated to COMRAM (6 bytes)
   334  00434E  6A54               	clrf	(__pbssCOMRAM+5)& (0+255),c
   335  004350  6A53               	clrf	(__pbssCOMRAM+4)& (0+255),c
   336  004352  6A52               	clrf	(__pbssCOMRAM+3)& (0+255),c
   337  004354  6A51               	clrf	(__pbssCOMRAM+2)& (0+255),c
   338  004356  6A50               	clrf	(__pbssCOMRAM+1)& (0+255),c
   339  004358  6A4F               	clrf	__pbssCOMRAM& (0+255),c
   340                           
   341                           ;
   342                           ; Setup IVTBASE
   343                           ;
   344  00435A  0104               	movlb	4
   345  00435C  0E08               	movlw	(ivt0x8_base shr 0)& (0+255)
   346  00435E  6F5D               	movwf	93,b
   347  004360  0E00               	movlw	(ivt0x8_base shr (0+8))& (0+255)
   348  004362  6F5E               	movwf	94,b
   349  004364  0E00               	movlw	(ivt0x8_base shr (0+16))& (0+255)
   350  004366  6F5F               	movwf	95,b
   351  004368                     end_of_initialization:
   352                           	callstack 0
   353  004368                     __end_of__initialization:
   354                           	callstack 0
   355  004368  0100               	movlb	0
   356  00436A  EF68  F01F         	goto	_main	;jump to C main() function
   357                           
   358                           	psect	bssCOMRAM
   359  00054F                     __pbssCOMRAM:
   360                           	callstack 0
   361  00054F                     _test:
   362                           	callstack 0
   363  00054F                     	ds	2
   364  000551                     _u8value:
   365                           	callstack 0
   366  000551                     	ds	2
   367  000553                     _u8count:
   368                           	callstack 0
   369  000553                     	ds	1
   370  000554                     _u8temp:
   371                           	callstack 0
   372  000554                     	ds	1
   373                           
   374                           	psect	bssBANK5
   375  0005CA                     __pbssBANK5:
   376                           	callstack 0
   377  0005CA                     fabsf@F465:
   378                           	callstack 0
   379  0005CA                     	ds	4
   380  0005CE                     ___rem_pio2f@F532:
   381                           	callstack 0
   382  0005CE                     	ds	4
   383  0005D2                     _i:
   384                           	callstack 0
   385  0005D2                     	ds	1
   386                           
   387                           	psect	bssBANK6
   388  000600                     __pbssBANK6:
   389                           	callstack 0
   390  000600                     _sins:
   391                           	callstack 0
   392  000600                     	ds	256
   393                           
   394                           	psect	cstackBANK5
   395  000560                     __pcstackBANK5:
   396                           	callstack 0
   397  000560                     ___cosdf@r:
   398                           	callstack 0
   399                           
   400                           ; 4 bytes @ 0x0
   401  000560                     	ds	4
   402  000564                     ___cosdf$1980:
   403                           	callstack 0
   404                           
   405                           ; 4 bytes @ 0x4
   406  000564                     	ds	4
   407  000568                     ___cosdf$1981:
   408                           	callstack 0
   409                           
   410                           ; 4 bytes @ 0x8
   411  000568                     	ds	4
   412  00056C                     ___cosdf$1982:
   413                           	callstack 0
   414                           
   415                           ; 4 bytes @ 0xC
   416  00056C                     	ds	4
   417  000570                     ___cosdf@w:
   418                           	callstack 0
   419                           
   420                           ; 4 bytes @ 0x10
   421  000570                     	ds	4
   422  000574                     ___cosdf@z:
   423                           	callstack 0
   424                           
   425                           ; 4 bytes @ 0x14
   426  000574                     	ds	4
   427  000578                     ?___flneg:
   428                           	callstack 0
   429  000578                     ___flneg@f1:
   430                           	callstack 0
   431                           
   432                           ; 4 bytes @ 0x18
   433  000578                     	ds	4
   434  00057C                     ?___rem_pio2f:
   435                           	callstack 0
   436  00057C                     ?___sindf:
   437                           	callstack 0
   438  00057C                     ___rem_pio2f@x:
   439                           	callstack 0
   440  00057C                     ___sindf@x:
   441                           	callstack 0
   442                           
   443                           ; 4 bytes @ 0x1C
   444  00057C                     	ds	4
   445  000580                     ___rem_pio2f@y:
   446                           	callstack 0
   447  000580                     ___sindf@r:
   448                           	callstack 0
   449                           
   450                           ; 4 bytes @ 0x20
   451  000580                     	ds	2
   452  000582                     ___rem_pio2f@ty:
   453                           	callstack 0
   454                           
   455                           ; 4 bytes @ 0x22
   456  000582                     	ds	2
   457  000584                     ___sindf@w:
   458                           	callstack 0
   459                           
   460                           ; 4 bytes @ 0x24
   461  000584                     	ds	2
   462  000586                     ___rem_pio2f@ix:
   463                           	callstack 0
   464                           
   465                           ; 4 bytes @ 0x26
   466  000586                     	ds	2
   467  000588                     ___sindf$1984:
   468                           	callstack 0
   469                           
   470                           ; 4 bytes @ 0x28
   471  000588                     	ds	2
   472  00058A                     ___rem_pio2f@sign:
   473                           	callstack 0
   474                           
   475                           ; 2 bytes @ 0x2A
   476  00058A                     	ds	2
   477  00058C                     ___rem_pio2f@u:
   478                           	callstack 0
   479  00058C                     ___sindf$1985:
   480                           	callstack 0
   481                           
   482                           ; 4 bytes @ 0x2C
   483  00058C                     	ds	4
   484  000590                     ___rem_pio2f$1983:
   485                           	callstack 0
   486  000590                     ___sindf$1986:
   487                           	callstack 0
   488                           
   489                           ; 4 bytes @ 0x30
   490  000590                     	ds	4
   491  000594                     ___rem_pio2f@fn:
   492                           	callstack 0
   493  000594                     ___sindf@s:
   494                           	callstack 0
   495                           
   496                           ; 4 bytes @ 0x34
   497  000594                     	ds	4
   498  000598                     ___rem_pio2f@t:
   499                           	callstack 0
   500  000598                     ___sindf@z:
   501                           	callstack 0
   502                           
   503                           ; 4 bytes @ 0x38
   504  000598                     	ds	4
   505  00059C                     ___rem_pio2f@n:
   506                           	callstack 0
   507                           
   508                           ; 4 bytes @ 0x3C
   509  00059C                     	ds	4
   510  0005A0                     ?_sinf:
   511                           	callstack 0
   512  0005A0                     sinf@x:
   513                           	callstack 0
   514                           
   515                           ; 4 bytes @ 0x40
   516  0005A0                     	ds	4
   517  0005A4                     sinf@n:
   518                           	callstack 0
   519                           
   520                           ; 4 bytes @ 0x44
   521  0005A4                     	ds	4
   522  0005A8                     sinf@__xc8_float_word:
   523                           	callstack 0
   524                           
   525                           ; 4 bytes @ 0x48
   526  0005A8                     	ds	4
   527  0005AC                     _sinf$1602:
   528                           	callstack 0
   529                           
   530                           ; 4 bytes @ 0x4C
   531  0005AC                     	ds	4
   532  0005B0                     _sinf$1603:
   533                           	callstack 0
   534                           
   535                           ; 4 bytes @ 0x50
   536  0005B0                     	ds	4
   537  0005B4                     sinf@sign:
   538                           	callstack 0
   539                           
   540                           ; 2 bytes @ 0x54
   541  0005B4                     	ds	2
   542  0005B6                     _sinf$1979:
   543                           	callstack 0
   544                           
   545                           ; 4 bytes @ 0x56
   546  0005B6                     	ds	4
   547  0005BA                     sinf@y:
   548                           	callstack 0
   549                           
   550                           ; 4 bytes @ 0x5A
   551  0005BA                     	ds	4
   552  0005BE                     sinf@ix:
   553                           	callstack 0
   554                           
   555                           ; 4 bytes @ 0x5E
   556  0005BE                     	ds	4
   557  0005C2                     _main$1977:
   558                           	callstack 0
   559                           
   560                           ; 4 bytes @ 0x62
   561  0005C2                     	ds	4
   562  0005C6                     _main$1978:
   563                           	callstack 0
   564                           
   565                           ; 4 bytes @ 0x66
   566  0005C6                     	ds	4
   567                           
   568                           	psect	cstackCOMRAM
   569  000501                     __pcstackCOMRAM:
   570                           	callstack 0
   571  000501                     SPI1_ExchangeByte@data:
   572                           	callstack 0
   573                           
   574                           ; 1 bytes @ 0x0
   575  000501                     	ds	1
   576  000502                     dac@value:
   577                           	callstack 0
   578                           
   579                           ; 2 bytes @ 0x1
   580  000502                     	ds	2
   581  000504                     ??_INTERRUPT_InterruptManager:
   582  000504                     
   583                           ; 1 bytes @ 0x3
   584  000504                     	ds	2
   585  000506                     ??_SPI1_Open:
   586  000506                     ?_fabsf:
   587                           	callstack 0
   588  000506                     ?___xxtofl:
   589                           	callstack 0
   590  000506                     ADCC_StartConversion@channel:
   591                           	callstack 0
   592  000506                     TMR2_SetInterruptHandler@InterruptHandler:
   593                           	callstack 0
   594  000506                     ___xxtofl@val:
   595                           	callstack 0
   596  000506                     fabsf@x:
   597                           	callstack 0
   598                           
   599                           ; 4 bytes @ 0x5
   600  000506                     	ds	1
   601  000507                     SPI1_Open@spi1UniqueConfiguration:
   602                           	callstack 0
   603                           
   604                           ; 1 bytes @ 0x6
   605  000507                     	ds	2
   606  000509                     
   607                           ; 1 bytes @ 0x8
   608  000509                     	ds	1
   609  00050A                     ??___xxtofl:
   610  00050A                     fabsf@u:
   611                           	callstack 0
   612                           
   613                           ; 4 bytes @ 0x9
   614  00050A                     	ds	4
   615  00050E                     ___xxtofl@sign:
   616                           	callstack 0
   617                           
   618                           ; 1 bytes @ 0xD
   619  00050E                     	ds	1
   620  00050F                     ___xxtofl@exp:
   621                           	callstack 0
   622                           
   623                           ; 1 bytes @ 0xE
   624  00050F                     	ds	1
   625  000510                     ___xxtofl@arg:
   626                           	callstack 0
   627                           
   628                           ; 4 bytes @ 0xF
   629  000510                     	ds	4
   630  000514                     ?___flmul:
   631                           	callstack 0
   632  000514                     ___flmul@b:
   633                           	callstack 0
   634                           
   635                           ; 4 bytes @ 0x13
   636  000514                     	ds	4
   637  000518                     ___flmul@a:
   638                           	callstack 0
   639                           
   640                           ; 4 bytes @ 0x17
   641  000518                     	ds	4
   642  00051C                     ??___flmul:
   643                           
   644                           ; 1 bytes @ 0x1B
   645  00051C                     	ds	4
   646  000520                     ___flmul@sign:
   647                           	callstack 0
   648                           
   649                           ; 1 bytes @ 0x1F
   650  000520                     	ds	1
   651  000521                     ___flmul@aexp:
   652                           	callstack 0
   653                           
   654                           ; 1 bytes @ 0x20
   655  000521                     	ds	1
   656  000522                     ___flmul@grs:
   657                           	callstack 0
   658                           
   659                           ; 4 bytes @ 0x21
   660  000522                     	ds	4
   661  000526                     ___flmul@bexp:
   662                           	callstack 0
   663                           
   664                           ; 1 bytes @ 0x25
   665  000526                     	ds	1
   666  000527                     ___flmul@prod:
   667                           	callstack 0
   668                           
   669                           ; 4 bytes @ 0x26
   670  000527                     	ds	4
   671  00052B                     ___flmul@temp:
   672                           	callstack 0
   673                           
   674                           ; 2 bytes @ 0x2A
   675  00052B                     	ds	2
   676  00052D                     ?___fladd:
   677                           	callstack 0
   678  00052D                     ___fladd@b:
   679                           	callstack 0
   680                           
   681                           ; 4 bytes @ 0x2C
   682  00052D                     	ds	4
   683  000531                     ___fladd@a:
   684                           	callstack 0
   685                           
   686                           ; 4 bytes @ 0x30
   687  000531                     	ds	4
   688  000535                     ??___fladd:
   689                           
   690                           ; 1 bytes @ 0x34
   691  000535                     	ds	4
   692  000539                     ___fladd@signs:
   693                           	callstack 0
   694                           
   695                           ; 1 bytes @ 0x38
   696  000539                     	ds	1
   697  00053A                     ___fladd@aexp:
   698                           	callstack 0
   699                           
   700                           ; 1 bytes @ 0x39
   701  00053A                     	ds	1
   702  00053B                     ___fladd@bexp:
   703                           	callstack 0
   704                           
   705                           ; 1 bytes @ 0x3A
   706  00053B                     	ds	1
   707  00053C                     ___fladd@grs:
   708                           	callstack 0
   709                           
   710                           ; 1 bytes @ 0x3B
   711  00053C                     	ds	1
   712  00053D                     ?___flsub:
   713                           	callstack 0
   714  00053D                     ?___cosdf:
   715                           	callstack 0
   716  00053D                     ?___fltol:
   717                           	callstack 0
   718  00053D                     ___fltol@f1:
   719                           	callstack 0
   720  00053D                     ___flsub@b:
   721                           	callstack 0
   722  00053D                     ___cosdf@x:
   723                           	callstack 0
   724                           
   725                           ; 4 bytes @ 0x3C
   726  00053D                     	ds	4
   727  000541                     ??___fltol:
   728  000541                     ___flsub@a:
   729                           	callstack 0
   730                           
   731                           ; 4 bytes @ 0x40
   732  000541                     	ds	4
   733  000545                     ___fltol@sign1:
   734                           	callstack 0
   735                           
   736                           ; 1 bytes @ 0x44
   737  000545                     	ds	1
   738  000546                     ___fltol@exp1:
   739                           	callstack 0
   740                           
   741                           ; 1 bytes @ 0x45
   742  000546                     	ds	1
   743  000547                     ??___rem_pio2f:
   744                           
   745                           ; 1 bytes @ 0x46
   746  000547                     	ds	4
   747  00054B                     ??_sinf:
   748                           
   749                           ; 1 bytes @ 0x4A
   750  00054B                     	ds	4
   751  00054F                     
   752                           ; 1 bytes @ 0x4E
   753 ;;
   754 ;;Main: autosize = 0, tempsize = 0, incstack = 0, save=0
   755 ;;
   756 ;; *************** function _main *****************
   757 ;; Defined at:
   758 ;;		line 84 in file "main.c"
   759 ;; Parameters:    Size  Location     Type
   760 ;;		None
   761 ;; Auto vars:     Size  Location     Type
   762 ;;		None
   763 ;; Return value:  Size  Location     Type
   764 ;;                  1    wreg      void 
   765 ;; Registers used:
   766 ;;		wreg, fsr2l, fsr2h, status,2, status,0, tblptrl, tblptrh, tblptru, prodl, prodh, cstack
   767 ;; Tracked objects:
   768 ;;		On entry : 0/0
   769 ;;		On exit  : 0/0
   770 ;;		Unchanged: 0/0
   771 ;; Data sizes:     COMRAM   BANK5   BANK6   BANK7   BANK8   BANK9  BANK10  BANK11  BANK12  BANK13  BANK14  BANK15  BANK1
      +6  BANK17  BANK18  BANK19  BANK20  BANK21  BANK22  BANK23  BANK24  BANK25  BANK26  BANK27  BANK28  BANK29  BANK30  BANK3
      +1  BANK32  BANK33  BANK34  BANK35  BANK36
   772 ;;      Params:         0       0       0       0       0       0       0       0       0       0       0       0       
      +0       0       0       0       0       0       0       0       0       0       0       0       0       0       0       
      +0       0       0       0       0       0
   773 ;;      Locals:         0       8       0       0       0       0       0       0       0       0       0       0       
      +0       0       0       0       0       0       0       0       0       0       0       0       0       0       0       
      +0       0       0       0       0       0
   774 ;;      Temps:          0       0       0       0       0       0       0       0       0       0       0       0       
      +0       0       0       0       0       0       0       0       0       0       0       0       0       0       0       
      +0       0       0       0       0       0
   775 ;;      Totals:         0       8       0       0       0       0       0       0       0       0       0       0       
      +0       0       0       0       0       0       0       0       0       0       0       0       0       0       0       
      +0       0       0       0       0       0
   776 ;;Total ram usage:        8 bytes
   777 ;; Hardware stack levels required when called: 10
   778 ;; This function calls:
   779 ;;		_ADCC_StartConversion
   780 ;;		_SPI1_Open
   781 ;;		_SYSTEM_Initialize
   782 ;;		_TMR2_SetInterruptHandler
   783 ;;		___fladd
   784 ;;		___flmul
   785 ;;		___fltol
   786 ;;		___xxtofl
   787 ;;		_sinf
   788 ;; This function is called by:
   789 ;;		Startup code after reset
   790 ;; This function uses a non-reentrant model
   791 ;;
   792                           
   793                           	psect	text0
   794  003ED0                     __ptext0:
   795                           	callstack 0
   796  003ED0                     _main:
   797                           	callstack 117
   798  003ED0                     
   799                           ;main.c: 86:     SYSTEM_Initialize();
   800  003ED0  EC90  F022         	call	_SYSTEM_Initialize	;wreg free
   801  003ED4  86C3               	bsf	195,3,c	;volatile
   802  003ED6                     
   803                           ;main.c: 89:     SPI1_Open(0);
   804  003ED6  0E00               	movlw	0
   805  003ED8  EC80  F020         	call	_SPI1_Open
   806  003EDC                     
   807                           ;main.c: 92:     (INTCON0bits.GIE = 1);
   808  003EDC  8ED6               	bsf	214,7,c	;volatile
   809  003EDE  96C3               	bcf	195,3,c	;volatile
   810  003EE0                     
   811                           ;main.c: 97:     for (i = 0; i < 128; i++) {
   812  003EE0  0E00               	movlw	0
   813  003EE2  0105               	movlb	5	; () banked
   814  003EE4  6FD2               	movwf	_i& (0+255),b
   815  003EE6                     l3751:
   816                           
   817                           ; BSR set to: 5
   818                           ;main.c: 98:         sins[i] = (2047) + (2047) * sinf((0.049f) * i);
   819  003EE6  0E39               	movlw	57
   820  003EE8  6E18               	movwf	___flmul@a^(0+1280),c
   821  003EEA  0EB4               	movlw	180
   822  003EEC  6E19               	movwf	(___flmul@a+1)^(0+1280),c
   823  003EEE  0E48               	movlw	72
   824  003EF0  6E1A               	movwf	(___flmul@a+2)^(0+1280),c
   825  003EF2  0E3D               	movlw	61
   826  003EF4  6E1B               	movwf	(___flmul@a+3)^(0+1280),c
   827  003EF6  51D2               	movf	_i& (0+255),w,b
   828  003EF8  6E06               	movwf	___xxtofl@val^(0+1280),c
   829  003EFA  6A07               	clrf	(___xxtofl@val+1)^(0+1280),c
   830  003EFC  6A08               	clrf	(___xxtofl@val+2)^(0+1280),c
   831  003EFE  6A09               	clrf	(___xxtofl@val+3)^(0+1280),c
   832  003F00  0E01               	movlw	1
   833  003F02  EC8E  F01E         	call	___xxtofl
   834  003F06  C506  F514         	movff	?___xxtofl,___flmul@b
   835  003F0A  C507  F515         	movff	?___xxtofl+1,___flmul@b+1
   836  003F0E  C508  F516         	movff	?___xxtofl+2,___flmul@b+2
   837  003F12  C509  F517         	movff	?___xxtofl+3,___flmul@b+3
   838  003F16  EC4F  F01A         	call	___flmul	;wreg free
   839  003F1A  C514  F5C2         	movff	?___flmul,_main$1977
   840  003F1E  C515  F5C3         	movff	?___flmul+1,_main$1977+1
   841  003F22  C516  F5C4         	movff	?___flmul+2,_main$1977+2
   842  003F26  C517  F5C5         	movff	?___flmul+3,_main$1977+3
   843  003F2A                     
   844                           ;main.c: 98:         sins[i] = (2047) + (2047) * sinf((0.049f) * i);
   845  003F2A  C5C2  F5A0         	movff	_main$1977,sinf@x
   846  003F2E  C5C3  F5A1         	movff	_main$1977+1,sinf@x+1
   847  003F32  C5C4  F5A2         	movff	_main$1977+2,sinf@x+2
   848  003F36  C5C5  F5A3         	movff	_main$1977+3,sinf@x+3
   849  003F3A  ECA6  F012         	call	_sinf	;wreg free
   850  003F3E  C5A0  F5C6         	movff	?_sinf,_main$1978
   851  003F42  C5A1  F5C7         	movff	?_sinf+1,_main$1978+1
   852  003F46  C5A2  F5C8         	movff	?_sinf+2,_main$1978+2
   853  003F4A  C5A3  F5C9         	movff	?_sinf+3,_main$1978+3
   854  003F4E                     
   855                           ;main.c: 98:         sins[i] = (2047) + (2047) * sinf((0.049f) * i);
   856  003F4E  0E00               	movlw	0
   857  003F50  6E31               	movwf	___fladd@a^(0+1280),c
   858  003F52  0EE0               	movlw	224
   859  003F54  6E32               	movwf	(___fladd@a+1)^(0+1280),c
   860  003F56  0EFF               	movlw	255
   861  003F58  6E33               	movwf	(___fladd@a+2)^(0+1280),c
   862  003F5A  0E44               	movlw	68
   863  003F5C  6E34               	movwf	(___fladd@a+3)^(0+1280),c
   864  003F5E  0E00               	movlw	0
   865  003F60  6E18               	movwf	___flmul@a^(0+1280),c
   866  003F62  0EE0               	movlw	224
   867  003F64  6E19               	movwf	(___flmul@a+1)^(0+1280),c
   868  003F66  0EFF               	movlw	255
   869  003F68  6E1A               	movwf	(___flmul@a+2)^(0+1280),c
   870  003F6A  0E44               	movlw	68
   871  003F6C  6E1B               	movwf	(___flmul@a+3)^(0+1280),c
   872  003F6E  C5C6  F514         	movff	_main$1978,___flmul@b
   873  003F72  C5C7  F515         	movff	_main$1978+1,___flmul@b+1
   874  003F76  C5C8  F516         	movff	_main$1978+2,___flmul@b+2
   875  003F7A  C5C9  F517         	movff	_main$1978+3,___flmul@b+3
   876  003F7E  EC4F  F01A         	call	___flmul	;wreg free
   877  003F82  C514  F52D         	movff	?___flmul,___fladd@b
   878  003F86  C515  F52E         	movff	?___flmul+1,___fladd@b+1
   879  003F8A  C516  F52F         	movff	?___flmul+2,___fladd@b+2
   880  003F8E  C517  F530         	movff	?___flmul+3,___fladd@b+3
   881  003F92  ECEF  F017         	call	___fladd	;wreg free
   882  003F96  C52D  F53D         	movff	?___fladd,___fltol@f1
   883  003F9A  C52E  F53E         	movff	?___fladd+1,___fltol@f1+1
   884  003F9E  C52F  F53F         	movff	?___fladd+2,___fltol@f1+2
   885  003FA2  C530  F540         	movff	?___fladd+3,___fltol@f1+3
   886  003FA6  ECFD  F01F         	call	___fltol	;wreg free
   887  003FAA  0105               	movlb	5	; () banked
   888  003FAC  51D2               	movf	_i& (0+255),w,b
   889  003FAE  0D02               	mullw	2
   890  003FB0  0E00               	movlw	low _sins
   891  003FB2  24F3               	addwf	243,w,c
   892  003FB4  6ED9               	movwf	fsr2l,c
   893  003FB6  0E06               	movlw	high _sins
   894  003FB8  20F4               	addwfc	prodh,w,c
   895  003FBA  6EDA               	movwf	fsr2h,c
   896  003FBC  0061  F4F4  F4DE   	movff	?___fltol,postinc2
   897  003FC2  0061  F4F8  F4DD   	movff	?___fltol+1,postdec2
   898  003FC8                     
   899                           ; BSR set to: 5
   900                           ;main.c: 99:     }
   901  003FC8  2BD2               	incf	_i& (0+255),f,b
   902  003FCA                     
   903                           ; BSR set to: 5
   904  003FCA  0E7F               	movlw	127
   905  003FCC  65D2               	cpfsgt	_i& (0+255),b
   906  003FCE  EFEB  F01F         	goto	u2851
   907  003FD2  EFED  F01F         	goto	u2850
   908  003FD6                     u2851:
   909  003FD6  EF73  F01F         	goto	l3751
   910  003FDA                     u2850:
   911  003FDA                     
   912                           ; BSR set to: 5
   913  003FDA  86C3               	bsf	195,3,c	;volatile
   914  003FDC                     
   915                           ; BSR set to: 5
   916                           ;main.c: 101:     ADCC_StartConversion(POT);
   917  003FDC  0E00               	movlw	0
   918  003FDE  ECBA  F022         	call	_ADCC_StartConversion
   919  003FE2                     
   920                           ;main.c: 102:     TMR2_SetInterruptHandler(updateDac);
   921  003FE2  0E6E               	movlw	low _updateDac
   922  003FE4  6E06               	movwf	TMR2_SetInterruptHandler@InterruptHandler^(0+1280),c
   923  003FE6  0E43               	movlw	high _updateDac
   924  003FE8  6E07               	movwf	(TMR2_SetInterruptHandler@InterruptHandler+1)^(0+1280),c
   925  003FEA  0E00               	movlw	low (_updateDac shr (0+16))
   926  003FEC  6E08               	movwf	(TMR2_SetInterruptHandler@InterruptHandler+2)^(0+1280),c
   927  003FEE  ECC2  F022         	call	_TMR2_SetInterruptHandler	;wreg free
   928  003FF2                     l382:
   929  003FF2  EFF9  F01F         	goto	l382
   930  003FF6  EF0D  F000         	goto	start
   931  003FFA                     __end_of_main:
   932                           	callstack 0
   933                           
   934 ;; *************** function _sinf *****************
   935 ;; Defined at:
   936 ;;		line 26 in file "C:\Program Files\Microchip\xc8\v2.36\pic\sources\c99\common\sinf.c"
   937 ;; Parameters:    Size  Location     Type
   938 ;;  x               4   64[BANK5 ] float 
   939 ;; Auto vars:     Size  Location     Type
   940 ;;  ix              4   94[BANK5 ] unsigned long 
   941 ;;  y               4   90[BANK5 ] unsigned long 
   942 ;;  __xc8_float_    4   72[BANK5 ] struct .
   943 ;;  n               4   68[BANK5 ] long 
   944 ;;  sign            2   84[BANK5 ] int 
   945 ;; Return value:  Size  Location     Type
   946 ;;                  4   64[BANK5 ] float 
   947 ;; Registers used:
   948 ;;		wreg, fsr2l, fsr2h, status,2, status,0, prodl, prodh, cstack
   949 ;; Tracked objects:
   950 ;;		On entry : 0/0
   951 ;;		On exit  : 0/0
   952 ;;		Unchanged: 0/0
   953 ;; Data sizes:     COMRAM   BANK5   BANK6   BANK7   BANK8   BANK9  BANK10  BANK11  BANK12  BANK13  BANK14  BANK15  BANK1
      +6  BANK17  BANK18  BANK19  BANK20  BANK21  BANK22  BANK23  BANK24  BANK25  BANK26  BANK27  BANK28  BANK29  BANK30  BANK3
      +1  BANK32  BANK33  BANK34  BANK35  BANK36
   954 ;;      Params:         0       4       0       0       0       0       0       0       0       0       0       0       
      +0       0       0       0       0       0       0       0       0       0       0       0       0       0       0       
      +0       0       0       0       0       0
   955 ;;      Locals:         0      30       0       0       0       0       0       0       0       0       0       0       
      +0       0       0       0       0       0       0       0       0       0       0       0       0       0       0       
      +0       0       0       0       0       0
   956 ;;      Temps:          4       0       0       0       0       0       0       0       0       0       0       0       
      +0       0       0       0       0       0       0       0       0       0       0       0       0       0       0       
      +0       0       0       0       0       0
   957 ;;      Totals:         4      34       0       0       0       0       0       0       0       0       0       0       
      +0       0       0       0       0       0       0       0       0       0       0       0       0       0       0       
      +0       0       0       0       0       0
   958 ;;Total ram usage:       38 bytes
   959 ;; Hardware stack levels used: 1
   960 ;; Hardware stack levels required when called: 9
   961 ;; This function calls:
   962 ;;		___cosdf
   963 ;;		___fladd
   964 ;;		___flneg
   965 ;;		___flsub
   966 ;;		___rem_pio2f
   967 ;;		___sindf
   968 ;; This function is called by:
   969 ;;		_main
   970 ;; This function uses a non-reentrant model
   971 ;;
   972                           
   973                           	psect	text1
   974  00254C                     __ptext1:
   975                           	callstack 0
   976  00254C                     _sinf:
   977                           	callstack 117
   978  00254C  C5A0  F5A8         	movff	sinf@x,sinf@__xc8_float_word
   979  002550  C5A1  F5A9         	movff	sinf@x+1,sinf@__xc8_float_word+1
   980  002554  C5A2  F5AA         	movff	sinf@x+2,sinf@__xc8_float_word+2
   981  002558  C5A3  F5AB         	movff	sinf@x+3,sinf@__xc8_float_word+3
   982  00255C  C5A8  F5BE         	movff	sinf@__xc8_float_word,sinf@ix
   983  002560  C5A9  F5BF         	movff	sinf@__xc8_float_word+1,sinf@ix+1
   984  002564  C5AA  F5C0         	movff	sinf@__xc8_float_word+2,sinf@ix+2
   985  002568  C5AB  F5C1         	movff	sinf@__xc8_float_word+3,sinf@ix+3
   986  00256C  C5BE  F54B         	movff	sinf@ix,??_sinf
   987  002570  C5BF  F54C         	movff	sinf@ix+1,??_sinf+1
   988  002574  C5C0  F54D         	movff	sinf@ix+2,??_sinf+2
   989  002578  C5C1  F54E         	movff	sinf@ix+3,??_sinf+3
   990  00257C  0E20               	movlw	32
   991  00257E  EFC6  F012         	goto	u2730
   992  002582                     u2735:
   993  002582  90D8               	bcf	status,0,c
   994  002584  324E               	rrcf	(??_sinf+3)^(0+1280),f,c
   995  002586  324D               	rrcf	(??_sinf+2)^(0+1280),f,c
   996  002588  324C               	rrcf	(??_sinf+1)^(0+1280),f,c
   997  00258A  324B               	rrcf	??_sinf^(0+1280),f,c
   998  00258C                     u2730:
   999  00258C  2EE8               	decfsz	wreg,f,c
  1000  00258E  EFC1  F012         	goto	u2735
  1001  002592  C54B  F5B4         	movff	??_sinf,sinf@sign
  1002  002596  C54C  F5B5         	movff	??_sinf+1,sinf@sign+1
  1003  00259A  0105               	movlb	5	; () banked
  1004  00259C  9FC1               	bcf	(sinf@ix+3)& (0+255),7,b
  1005  00259E                     
  1006                           ; BSR set to: 5
  1007  00259E  0EDB               	movlw	219
  1008  0025A0  5DBE               	subwf	sinf@ix& (0+255),w,b
  1009  0025A2  0E0F               	movlw	15
  1010  0025A4  59BF               	subwfb	(sinf@ix+1)& (0+255),w,b
  1011  0025A6  0E49               	movlw	73
  1012  0025A8  59C0               	subwfb	(sinf@ix+2)& (0+255),w,b
  1013  0025AA  0E3F               	movlw	63
  1014  0025AC  59C1               	subwfb	(sinf@ix+3)& (0+255),w,b
  1015  0025AE  B0D8               	btfsc	status,0,c
  1016  0025B0  EFDC  F012         	goto	u2741
  1017  0025B4  EFDE  F012         	goto	u2740
  1018  0025B8                     u2741:
  1019  0025B8  EF07  F013         	goto	l3629
  1020  0025BC                     u2740:
  1021  0025BC                     
  1022                           ; BSR set to: 5
  1023  0025BC  0E80               	movlw	128
  1024  0025BE  5DC0               	subwf	(sinf@ix+2)& (0+255),w,b
  1025  0025C0  0E39               	movlw	57
  1026  0025C2  59C1               	subwfb	(sinf@ix+3)& (0+255),w,b
  1027  0025C4  B0D8               	btfsc	status,0,c
  1028  0025C6  EFE7  F012         	goto	u2751
  1029  0025CA  EFE9  F012         	goto	u2750
  1030  0025CE                     u2751:
  1031  0025CE  EFF3  F012         	goto	l3625
  1032  0025D2                     u2750:
  1033  0025D2                     
  1034                           ; BSR set to: 5
  1035  0025D2  C5A0  F5A0         	movff	sinf@x,?_sinf
  1036  0025D6  C5A1  F5A1         	movff	sinf@x+1,?_sinf+1
  1037  0025DA  C5A2  F5A2         	movff	sinf@x+2,?_sinf+2
  1038  0025DE  C5A3  F5A3         	movff	sinf@x+3,?_sinf+3
  1039  0025E2  EF82  F015         	goto	l1240
  1040  0025E6                     l3625:
  1041                           
  1042                           ; BSR set to: 5
  1043  0025E6  C5A0  F57C         	movff	sinf@x,___sindf@x
  1044  0025EA  C5A1  F57D         	movff	sinf@x+1,___sindf@x+1
  1045  0025EE  C5A2  F57E         	movff	sinf@x+2,___sindf@x+2
  1046  0025F2  C5A3  F57F         	movff	sinf@x+3,___sindf@x+3
  1047  0025F6  EC76  F01C         	call	___sindf	;wreg free
  1048  0025FA  C57C  F5A0         	movff	?___sindf,?_sinf
  1049  0025FE  C57D  F5A1         	movff	?___sindf+1,?_sinf+1
  1050  002602  C57E  F5A2         	movff	?___sindf+2,?_sinf+2
  1051  002606  C57F  F5A3         	movff	?___sindf+3,?_sinf+3
  1052  00260A  EF82  F015         	goto	l1240
  1053  00260E                     l3629:
  1054                           
  1055                           ; BSR set to: 5
  1056  00260E  0ED2               	movlw	210
  1057  002610  5DBE               	subwf	sinf@ix& (0+255),w,b
  1058  002612  0E53               	movlw	83
  1059  002614  59BF               	subwfb	(sinf@ix+1)& (0+255),w,b
  1060  002616  0E7B               	movlw	123
  1061  002618  59C0               	subwfb	(sinf@ix+2)& (0+255),w,b
  1062  00261A  0E40               	movlw	64
  1063  00261C  59C1               	subwfb	(sinf@ix+3)& (0+255),w,b
  1064  00261E  B0D8               	btfsc	status,0,c
  1065  002620  EF14  F013         	goto	u2761
  1066  002624  EF16  F013         	goto	u2760
  1067  002628                     u2761:
  1068  002628  EFFB  F013         	goto	l3659
  1069  00262C                     u2760:
  1070  00262C                     
  1071                           ; BSR set to: 5
  1072  00262C  0EE4               	movlw	228
  1073  00262E  5DBE               	subwf	sinf@ix& (0+255),w,b
  1074  002630  0ECB               	movlw	203
  1075  002632  59BF               	subwfb	(sinf@ix+1)& (0+255),w,b
  1076  002634  0E16               	movlw	22
  1077  002636  59C0               	subwfb	(sinf@ix+2)& (0+255),w,b
  1078  002638  0E40               	movlw	64
  1079  00263A  59C1               	subwfb	(sinf@ix+3)& (0+255),w,b
  1080  00263C  B0D8               	btfsc	status,0,c
  1081  00263E  EF23  F013         	goto	u2771
  1082  002642  EF25  F013         	goto	u2770
  1083  002646                     u2771:
  1084  002646  EF94  F013         	goto	l3649
  1085  00264A                     u2770:
  1086  00264A                     
  1087                           ; BSR set to: 5
  1088  00264A  51B4               	movf	sinf@sign& (0+255),w,b
  1089  00264C  11B5               	iorwf	(sinf@sign+1)& (0+255),w,b
  1090  00264E  B4D8               	btfsc	status,2,c
  1091  002650  EF2C  F013         	goto	u2781
  1092  002654  EF2E  F013         	goto	u2780
  1093  002658                     u2781:
  1094  002658  EF66  F013         	goto	l3643
  1095  00265C                     u2780:
  1096  00265C                     
  1097                           ; BSR set to: 5
  1098  00265C  0EDB               	movlw	219
  1099  00265E  6E31               	movwf	___fladd@a^(0+1280),c
  1100  002660  0E0F               	movlw	15
  1101  002662  6E32               	movwf	(___fladd@a+1)^(0+1280),c
  1102  002664  0EC9               	movlw	201
  1103  002666  6E33               	movwf	(___fladd@a+2)^(0+1280),c
  1104  002668  0E3F               	movlw	63
  1105  00266A  6E34               	movwf	(___fladd@a+3)^(0+1280),c
  1106  00266C  C5A0  F52D         	movff	sinf@x,___fladd@b
  1107  002670  C5A1  F52E         	movff	sinf@x+1,___fladd@b+1
  1108  002674  C5A2  F52F         	movff	sinf@x+2,___fladd@b+2
  1109  002678  C5A3  F530         	movff	sinf@x+3,___fladd@b+3
  1110  00267C  ECEF  F017         	call	___fladd	;wreg free
  1111  002680  C52D  F5B6         	movff	?___fladd,_sinf$1979
  1112  002684  C52E  F5B7         	movff	?___fladd+1,_sinf$1979+1
  1113  002688  C52F  F5B8         	movff	?___fladd+2,_sinf$1979+2
  1114  00268C  C530  F5B9         	movff	?___fladd+3,_sinf$1979+3
  1115  002690                     l3637:
  1116  002690  C5B6  F53D         	movff	_sinf$1979,___cosdf@x
  1117  002694  C5B7  F53E         	movff	_sinf$1979+1,___cosdf@x+1
  1118  002698  C5B8  F53F         	movff	_sinf$1979+2,___cosdf@x+2
  1119  00269C  C5B9  F540         	movff	_sinf$1979+3,___cosdf@x+3
  1120  0026A0  EC8F  F01D         	call	___cosdf	;wreg free
  1121  0026A4  C53D  F578         	movff	?___cosdf,___flneg@f1
  1122  0026A8  C53E  F579         	movff	?___cosdf+1,___flneg@f1+1
  1123  0026AC  C53F  F57A         	movff	?___cosdf+2,___flneg@f1+2
  1124  0026B0  C540  F57B         	movff	?___cosdf+3,___flneg@f1+3
  1125  0026B4  ECD7  F021         	call	___flneg	;wreg free
  1126  0026B8  C578  F5A0         	movff	?___flneg,?_sinf
  1127  0026BC  C579  F5A1         	movff	?___flneg+1,?_sinf+1
  1128  0026C0  C57A  F5A2         	movff	?___flneg+2,?_sinf+2
  1129  0026C4  C57B  F5A3         	movff	?___flneg+3,?_sinf+3
  1130  0026C8  EF82  F015         	goto	l1240
  1131  0026CC                     l3643:
  1132                           
  1133                           ; BSR set to: 5
  1134  0026CC  C5A0  F52D         	movff	sinf@x,___fladd@b
  1135  0026D0  C5A1  F52E         	movff	sinf@x+1,___fladd@b+1
  1136  0026D4  C5A2  F52F         	movff	sinf@x+2,___fladd@b+2
  1137  0026D8  C5A3  F530         	movff	sinf@x+3,___fladd@b+3
  1138  0026DC  0EDB               	movlw	219
  1139  0026DE  6E31               	movwf	___fladd@a^(0+1280),c
  1140  0026E0  0E0F               	movlw	15
  1141  0026E2  6E32               	movwf	(___fladd@a+1)^(0+1280),c
  1142  0026E4  0EC9               	movlw	201
  1143  0026E6  6E33               	movwf	(___fladd@a+2)^(0+1280),c
  1144  0026E8  0EBF               	movlw	191
  1145  0026EA  6E34               	movwf	(___fladd@a+3)^(0+1280),c
  1146  0026EC  ECEF  F017         	call	___fladd	;wreg free
  1147  0026F0  C52D  F5B6         	movff	?___fladd,_sinf$1979
  1148  0026F4  C52E  F5B7         	movff	?___fladd+1,_sinf$1979+1
  1149  0026F8  C52F  F5B8         	movff	?___fladd+2,_sinf$1979+2
  1150  0026FC  C530  F5B9         	movff	?___fladd+3,_sinf$1979+3
  1151  002700                     l3645:
  1152  002700  C5B6  F53D         	movff	_sinf$1979,___cosdf@x
  1153  002704  C5B7  F53E         	movff	_sinf$1979+1,___cosdf@x+1
  1154  002708  C5B8  F53F         	movff	_sinf$1979+2,___cosdf@x+2
  1155  00270C  C5B9  F540         	movff	_sinf$1979+3,___cosdf@x+3
  1156  002710  EC8F  F01D         	call	___cosdf	;wreg free
  1157  002714  C53D  F5A0         	movff	?___cosdf,?_sinf
  1158  002718  C53E  F5A1         	movff	?___cosdf+1,?_sinf+1
  1159  00271C  C53F  F5A2         	movff	?___cosdf+2,?_sinf+2
  1160  002720  C540  F5A3         	movff	?___cosdf+3,?_sinf+3
  1161  002724  EF82  F015         	goto	l1240
  1162  002728                     l3649:
  1163                           
  1164                           ; BSR set to: 5
  1165  002728  51B4               	movf	sinf@sign& (0+255),w,b
  1166  00272A  11B5               	iorwf	(sinf@sign+1)& (0+255),w,b
  1167  00272C  A4D8               	btfss	status,2,c
  1168  00272E  EF9B  F013         	goto	u2791
  1169  002732  EF9D  F013         	goto	u2790
  1170  002736                     u2791:
  1171  002736  EFC3  F013         	goto	l3653
  1172  00273A                     u2790:
  1173  00273A                     
  1174                           ; BSR set to: 5
  1175  00273A  0EDB               	movlw	219
  1176  00273C  6E31               	movwf	___fladd@a^(0+1280),c
  1177  00273E  0E0F               	movlw	15
  1178  002740  6E32               	movwf	(___fladd@a+1)^(0+1280),c
  1179  002742  0E49               	movlw	73
  1180  002744  6E33               	movwf	(___fladd@a+2)^(0+1280),c
  1181  002746  0EC0               	movlw	192
  1182  002748  6E34               	movwf	(___fladd@a+3)^(0+1280),c
  1183  00274A  C5A0  F52D         	movff	sinf@x,___fladd@b
  1184  00274E  C5A1  F52E         	movff	sinf@x+1,___fladd@b+1
  1185  002752  C5A2  F52F         	movff	sinf@x+2,___fladd@b+2
  1186  002756  C5A3  F530         	movff	sinf@x+3,___fladd@b+3
  1187  00275A  ECEF  F017         	call	___fladd	;wreg free
  1188  00275E  C52D  F578         	movff	?___fladd,___flneg@f1
  1189  002762  C52E  F579         	movff	?___fladd+1,___flneg@f1+1
  1190  002766  C52F  F57A         	movff	?___fladd+2,___flneg@f1+2
  1191  00276A  C530  F57B         	movff	?___fladd+3,___flneg@f1+3
  1192  00276E  ECD7  F021         	call	___flneg	;wreg free
  1193  002772  C578  F5AC         	movff	?___flneg,_sinf$1602
  1194  002776  C579  F5AD         	movff	?___flneg+1,_sinf$1602+1
  1195  00277A  C57A  F5AE         	movff	?___flneg+2,_sinf$1602+2
  1196  00277E  C57B  F5AF         	movff	?___flneg+3,_sinf$1602+3
  1197  002782  EFE7  F013         	goto	l3655
  1198  002786                     l3653:
  1199                           
  1200                           ; BSR set to: 5
  1201  002786  0EDB               	movlw	219
  1202  002788  6E31               	movwf	___fladd@a^(0+1280),c
  1203  00278A  0E0F               	movlw	15
  1204  00278C  6E32               	movwf	(___fladd@a+1)^(0+1280),c
  1205  00278E  0E49               	movlw	73
  1206  002790  6E33               	movwf	(___fladd@a+2)^(0+1280),c
  1207  002792  0E40               	movlw	64
  1208  002794  6E34               	movwf	(___fladd@a+3)^(0+1280),c
  1209  002796  C5A0  F52D         	movff	sinf@x,___fladd@b
  1210  00279A  C5A1  F52E         	movff	sinf@x+1,___fladd@b+1
  1211  00279E  C5A2  F52F         	movff	sinf@x+2,___fladd@b+2
  1212  0027A2  C5A3  F530         	movff	sinf@x+3,___fladd@b+3
  1213  0027A6  ECEF  F017         	call	___fladd	;wreg free
  1214  0027AA  C52D  F578         	movff	?___fladd,___flneg@f1
  1215  0027AE  C52E  F579         	movff	?___fladd+1,___flneg@f1+1
  1216  0027B2  C52F  F57A         	movff	?___fladd+2,___flneg@f1+2
  1217  0027B6  C530  F57B         	movff	?___fladd+3,___flneg@f1+3
  1218  0027BA  ECD7  F021         	call	___flneg	;wreg free
  1219  0027BE  C578  F5AC         	movff	?___flneg,_sinf$1602
  1220  0027C2  C579  F5AD         	movff	?___flneg+1,_sinf$1602+1
  1221  0027C6  C57A  F5AE         	movff	?___flneg+2,_sinf$1602+2
  1222  0027CA  C57B  F5AF         	movff	?___flneg+3,_sinf$1602+3
  1223  0027CE                     l3655:
  1224  0027CE  C5AC  F57C         	movff	_sinf$1602,___sindf@x
  1225  0027D2  C5AD  F57D         	movff	_sinf$1602+1,___sindf@x+1
  1226  0027D6  C5AE  F57E         	movff	_sinf$1602+2,___sindf@x+2
  1227  0027DA  C5AF  F57F         	movff	_sinf$1602+3,___sindf@x+3
  1228  0027DE  EC76  F01C         	call	___sindf	;wreg free
  1229  0027E2  C57C  F5A0         	movff	?___sindf,?_sinf
  1230  0027E6  C57D  F5A1         	movff	?___sindf+1,?_sinf+1
  1231  0027EA  C57E  F5A2         	movff	?___sindf+2,?_sinf+2
  1232  0027EE  C57F  F5A3         	movff	?___sindf+3,?_sinf+3
  1233  0027F2  EF82  F015         	goto	l1240
  1234  0027F6                     l3659:
  1235                           
  1236                           ; BSR set to: 5
  1237  0027F6  0ED6               	movlw	214
  1238  0027F8  5DBE               	subwf	sinf@ix& (0+255),w,b
  1239  0027FA  0E31               	movlw	49
  1240  0027FC  59BF               	subwfb	(sinf@ix+1)& (0+255),w,b
  1241  0027FE  0EE2               	movlw	226
  1242  002800  59C0               	subwfb	(sinf@ix+2)& (0+255),w,b
  1243  002802  0E40               	movlw	64
  1244  002804  59C1               	subwfb	(sinf@ix+3)& (0+255),w,b
  1245  002806  B0D8               	btfsc	status,0,c
  1246  002808  EF08  F014         	goto	u2801
  1247  00280C  EF0A  F014         	goto	u2800
  1248  002810                     u2801:
  1249  002810  EFAD  F014         	goto	l3689
  1250  002814                     u2800:
  1251  002814                     
  1252                           ; BSR set to: 5
  1253  002814  0EE0               	movlw	224
  1254  002816  5DBE               	subwf	sinf@ix& (0+255),w,b
  1255  002818  0EED               	movlw	237
  1256  00281A  59BF               	subwfb	(sinf@ix+1)& (0+255),w,b
  1257  00281C  0EAF               	movlw	175
  1258  00281E  59C0               	subwfb	(sinf@ix+2)& (0+255),w,b
  1259  002820  0E40               	movlw	64
  1260  002822  59C1               	subwfb	(sinf@ix+3)& (0+255),w,b
  1261  002824  B0D8               	btfsc	status,0,c
  1262  002826  EF17  F014         	goto	u2811
  1263  00282A  EF19  F014         	goto	u2810
  1264  00282E                     u2811:
  1265  00282E  EF5A  F014         	goto	l3679
  1266  002832                     u2810:
  1267  002832                     
  1268                           ; BSR set to: 5
  1269  002832  51B4               	movf	sinf@sign& (0+255),w,b
  1270  002834  11B5               	iorwf	(sinf@sign+1)& (0+255),w,b
  1271  002836  B4D8               	btfsc	status,2,c
  1272  002838  EF20  F014         	goto	u2821
  1273  00283C  EF22  F014         	goto	u2820
  1274  002840                     u2821:
  1275  002840  EF3E  F014         	goto	l3673
  1276  002844                     u2820:
  1277  002844                     
  1278                           ; BSR set to: 5
  1279  002844  C5A0  F52D         	movff	sinf@x,___fladd@b
  1280  002848  C5A1  F52E         	movff	sinf@x+1,___fladd@b+1
  1281  00284C  C5A2  F52F         	movff	sinf@x+2,___fladd@b+2
  1282  002850  C5A3  F530         	movff	sinf@x+3,___fladd@b+3
  1283  002854  0EE4               	movlw	228
  1284  002856  6E31               	movwf	___fladd@a^(0+1280),c
  1285  002858  0ECB               	movlw	203
  1286  00285A  6E32               	movwf	(___fladd@a+1)^(0+1280),c
  1287  00285C  0E96               	movlw	150
  1288  00285E  6E33               	movwf	(___fladd@a+2)^(0+1280),c
  1289  002860  0E40               	movlw	64
  1290  002862  6E34               	movwf	(___fladd@a+3)^(0+1280),c
  1291  002864  ECEF  F017         	call	___fladd	;wreg free
  1292  002868  C52D  F5B6         	movff	?___fladd,_sinf$1979
  1293  00286C  C52E  F5B7         	movff	?___fladd+1,_sinf$1979+1
  1294  002870  C52F  F5B8         	movff	?___fladd+2,_sinf$1979+2
  1295  002874  C530  F5B9         	movff	?___fladd+3,_sinf$1979+3
  1296  002878  EF80  F013         	goto	l3645
  1297  00287C                     l3673:
  1298                           
  1299                           ; BSR set to: 5
  1300  00287C  0EE4               	movlw	228
  1301  00287E  6E31               	movwf	___fladd@a^(0+1280),c
  1302  002880  0ECB               	movlw	203
  1303  002882  6E32               	movwf	(___fladd@a+1)^(0+1280),c
  1304  002884  0E96               	movlw	150
  1305  002886  6E33               	movwf	(___fladd@a+2)^(0+1280),c
  1306  002888  0EC0               	movlw	192
  1307  00288A  6E34               	movwf	(___fladd@a+3)^(0+1280),c
  1308  00288C  C5A0  F52D         	movff	sinf@x,___fladd@b
  1309  002890  C5A1  F52E         	movff	sinf@x+1,___fladd@b+1
  1310  002894  C5A2  F52F         	movff	sinf@x+2,___fladd@b+2
  1311  002898  C5A3  F530         	movff	sinf@x+3,___fladd@b+3
  1312  00289C  ECEF  F017         	call	___fladd	;wreg free
  1313  0028A0  C52D  F5B6         	movff	?___fladd,_sinf$1979
  1314  0028A4  C52E  F5B7         	movff	?___fladd+1,_sinf$1979+1
  1315  0028A8  C52F  F5B8         	movff	?___fladd+2,_sinf$1979+2
  1316  0028AC  C530  F5B9         	movff	?___fladd+3,_sinf$1979+3
  1317  0028B0  EF48  F013         	goto	l3637
  1318  0028B4                     l3679:
  1319                           
  1320                           ; BSR set to: 5
  1321  0028B4  51B4               	movf	sinf@sign& (0+255),w,b
  1322  0028B6  11B5               	iorwf	(sinf@sign+1)& (0+255),w,b
  1323  0028B8  A4D8               	btfss	status,2,c
  1324  0028BA  EF61  F014         	goto	u2831
  1325  0028BE  EF63  F014         	goto	u2830
  1326  0028C2                     u2831:
  1327  0028C2  EF7F  F014         	goto	l3683
  1328  0028C6                     u2830:
  1329  0028C6                     
  1330                           ; BSR set to: 5
  1331  0028C6  C5A0  F52D         	movff	sinf@x,___fladd@b
  1332  0028CA  C5A1  F52E         	movff	sinf@x+1,___fladd@b+1
  1333  0028CE  C5A2  F52F         	movff	sinf@x+2,___fladd@b+2
  1334  0028D2  C5A3  F530         	movff	sinf@x+3,___fladd@b+3
  1335  0028D6  0EDB               	movlw	219
  1336  0028D8  6E31               	movwf	___fladd@a^(0+1280),c
  1337  0028DA  0E0F               	movlw	15
  1338  0028DC  6E32               	movwf	(___fladd@a+1)^(0+1280),c
  1339  0028DE  0EC9               	movlw	201
  1340  0028E0  6E33               	movwf	(___fladd@a+2)^(0+1280),c
  1341  0028E2  0EC0               	movlw	192
  1342  0028E4  6E34               	movwf	(___fladd@a+3)^(0+1280),c
  1343  0028E6  ECEF  F017         	call	___fladd	;wreg free
  1344  0028EA  C52D  F5B0         	movff	?___fladd,_sinf$1603
  1345  0028EE  C52E  F5B1         	movff	?___fladd+1,_sinf$1603+1
  1346  0028F2  C52F  F5B2         	movff	?___fladd+2,_sinf$1603+2
  1347  0028F6  C530  F5B3         	movff	?___fladd+3,_sinf$1603+3
  1348  0028FA  EF99  F014         	goto	l3685
  1349  0028FE                     l3683:
  1350                           
  1351                           ; BSR set to: 5
  1352  0028FE  C5A0  F52D         	movff	sinf@x,___fladd@b
  1353  002902  C5A1  F52E         	movff	sinf@x+1,___fladd@b+1
  1354  002906  C5A2  F52F         	movff	sinf@x+2,___fladd@b+2
  1355  00290A  C5A3  F530         	movff	sinf@x+3,___fladd@b+3
  1356  00290E  0EDB               	movlw	219
  1357  002910  6E31               	movwf	___fladd@a^(0+1280),c
  1358  002912  0E0F               	movlw	15
  1359  002914  6E32               	movwf	(___fladd@a+1)^(0+1280),c
  1360  002916  0EC9               	movlw	201
  1361  002918  6E33               	movwf	(___fladd@a+2)^(0+1280),c
  1362  00291A  0E40               	movlw	64
  1363  00291C  6E34               	movwf	(___fladd@a+3)^(0+1280),c
  1364  00291E  ECEF  F017         	call	___fladd	;wreg free
  1365  002922  C52D  F5B0         	movff	?___fladd,_sinf$1603
  1366  002926  C52E  F5B1         	movff	?___fladd+1,_sinf$1603+1
  1367  00292A  C52F  F5B2         	movff	?___fladd+2,_sinf$1603+2
  1368  00292E  C530  F5B3         	movff	?___fladd+3,_sinf$1603+3
  1369  002932                     l3685:
  1370  002932  C5B0  F57C         	movff	_sinf$1603,___sindf@x
  1371  002936  C5B1  F57D         	movff	_sinf$1603+1,___sindf@x+1
  1372  00293A  C5B2  F57E         	movff	_sinf$1603+2,___sindf@x+2
  1373  00293E  C5B3  F57F         	movff	_sinf$1603+3,___sindf@x+3
  1374  002942  EC76  F01C         	call	___sindf	;wreg free
  1375  002946  C57C  F5A0         	movff	?___sindf,?_sinf
  1376  00294A  C57D  F5A1         	movff	?___sindf+1,?_sinf+1
  1377  00294E  C57E  F5A2         	movff	?___sindf+2,?_sinf+2
  1378  002952  C57F  F5A3         	movff	?___sindf+3,?_sinf+3
  1379  002956  EF82  F015         	goto	l1240
  1380  00295A                     l3689:
  1381                           
  1382                           ; BSR set to: 5
  1383  00295A  0E80               	movlw	128
  1384  00295C  5DC0               	subwf	(sinf@ix+2)& (0+255),w,b
  1385  00295E  0E7F               	movlw	127
  1386  002960  59C1               	subwfb	(sinf@ix+3)& (0+255),w,b
  1387  002962  A0D8               	btfss	status,0,c
  1388  002964  EFB6  F014         	goto	u2841
  1389  002968  EFB8  F014         	goto	u2840
  1390  00296C                     u2841:
  1391  00296C  EFD4  F014         	goto	l3695
  1392  002970                     u2840:
  1393  002970                     
  1394                           ; BSR set to: 5
  1395  002970  C5A0  F53D         	movff	sinf@x,___flsub@b
  1396  002974  C5A1  F53E         	movff	sinf@x+1,___flsub@b+1
  1397  002978  C5A2  F53F         	movff	sinf@x+2,___flsub@b+2
  1398  00297C  C5A3  F540         	movff	sinf@x+3,___flsub@b+3
  1399  002980  C5A0  F541         	movff	sinf@x,___flsub@a
  1400  002984  C5A1  F542         	movff	sinf@x+1,___flsub@a+1
  1401  002988  C5A2  F543         	movff	sinf@x+2,___flsub@a+2
  1402  00298C  C5A3  F544         	movff	sinf@x+3,___flsub@a+3
  1403  002990  EC74  F021         	call	___flsub	;wreg free
  1404  002994  C53D  F5A0         	movff	?___flsub,?_sinf
  1405  002998  C53E  F5A1         	movff	?___flsub+1,?_sinf+1
  1406  00299C  C53F  F5A2         	movff	?___flsub+2,?_sinf+2
  1407  0029A0  C540  F5A3         	movff	?___flsub+3,?_sinf+3
  1408  0029A4  EF82  F015         	goto	l1240
  1409  0029A8                     l3695:
  1410                           
  1411                           ; BSR set to: 5
  1412  0029A8  C5A0  F57C         	movff	sinf@x,___rem_pio2f@x
  1413  0029AC  C5A1  F57D         	movff	sinf@x+1,___rem_pio2f@x+1
  1414  0029B0  C5A2  F57E         	movff	sinf@x+2,___rem_pio2f@x+2
  1415  0029B4  C5A3  F57F         	movff	sinf@x+3,___rem_pio2f@x+3
  1416  0029B8  0EBA               	movlw	low sinf@y
  1417  0029BA  6F80               	movwf	___rem_pio2f@y& (0+255),b
  1418  0029BC  0E05               	movlw	high sinf@y
  1419  0029BE  6F81               	movwf	(___rem_pio2f@y+1)& (0+255),b
  1420  0029C0  EC83  F015         	call	___rem_pio2f	;wreg free
  1421  0029C4  0105               	movlb	5	; () banked
  1422  0029C6  C57C  F5A4         	movff	?___rem_pio2f,sinf@n
  1423  0029CA  C57D  F5A5         	movff	?___rem_pio2f+1,sinf@n+1
  1424  0029CE  0E00               	movlw	0
  1425  0029D0  BFA5               	btfsc	(sinf@n+1)& (0+255),7,b
  1426  0029D2  0EFF               	movlw	-1
  1427  0029D4  6FA6               	movwf	(sinf@n+2)& (0+255),b
  1428  0029D6  6FA7               	movwf	(sinf@n+3)& (0+255),b
  1429  0029D8  EF52  F015         	goto	l3715
  1430  0029DC                     l3697:
  1431                           
  1432                           ; BSR set to: 5
  1433  0029DC  C5BA  F57C         	movff	sinf@y,___sindf@x
  1434  0029E0  C5BB  F57D         	movff	sinf@y+1,___sindf@x+1
  1435  0029E4  C5BC  F57E         	movff	sinf@y+2,___sindf@x+2
  1436  0029E8  C5BD  F57F         	movff	sinf@y+3,___sindf@x+3
  1437  0029EC  EC76  F01C         	call	___sindf	;wreg free
  1438  0029F0  C57C  F5A0         	movff	?___sindf,?_sinf
  1439  0029F4  C57D  F5A1         	movff	?___sindf+1,?_sinf+1
  1440  0029F8  C57E  F5A2         	movff	?___sindf+2,?_sinf+2
  1441  0029FC  C57F  F5A3         	movff	?___sindf+3,?_sinf+3
  1442  002A00  EF82  F015         	goto	l1240
  1443  002A04                     l3701:
  1444                           
  1445                           ; BSR set to: 5
  1446  002A04  C5BA  F53D         	movff	sinf@y,___cosdf@x
  1447  002A08  C5BB  F53E         	movff	sinf@y+1,___cosdf@x+1
  1448  002A0C  C5BC  F53F         	movff	sinf@y+2,___cosdf@x+2
  1449  002A10  C5BD  F540         	movff	sinf@y+3,___cosdf@x+3
  1450  002A14  EC8F  F01D         	call	___cosdf	;wreg free
  1451  002A18  C53D  F5A0         	movff	?___cosdf,?_sinf
  1452  002A1C  C53E  F5A1         	movff	?___cosdf+1,?_sinf+1
  1453  002A20  C53F  F5A2         	movff	?___cosdf+2,?_sinf+2
  1454  002A24  C540  F5A3         	movff	?___cosdf+3,?_sinf+3
  1455  002A28  EF82  F015         	goto	l1240
  1456  002A2C                     l3705:
  1457                           
  1458                           ; BSR set to: 5
  1459  002A2C  C5BA  F578         	movff	sinf@y,___flneg@f1
  1460  002A30  C5BB  F579         	movff	sinf@y+1,___flneg@f1+1
  1461  002A34  C5BC  F57A         	movff	sinf@y+2,___flneg@f1+2
  1462  002A38  C5BD  F57B         	movff	sinf@y+3,___flneg@f1+3
  1463  002A3C  ECD7  F021         	call	___flneg	;wreg free
  1464  002A40  C578  F57C         	movff	?___flneg,___sindf@x
  1465  002A44  C579  F57D         	movff	?___flneg+1,___sindf@x+1
  1466  002A48  C57A  F57E         	movff	?___flneg+2,___sindf@x+2
  1467  002A4C  C57B  F57F         	movff	?___flneg+3,___sindf@x+3
  1468  002A50  EC76  F01C         	call	___sindf	;wreg free
  1469  002A54  C57C  F5A0         	movff	?___sindf,?_sinf
  1470  002A58  C57D  F5A1         	movff	?___sindf+1,?_sinf+1
  1471  002A5C  C57E  F5A2         	movff	?___sindf+2,?_sinf+2
  1472  002A60  C57F  F5A3         	movff	?___sindf+3,?_sinf+3
  1473  002A64  EF82  F015         	goto	l1240
  1474  002A68                     l3709:
  1475                           
  1476                           ; BSR set to: 5
  1477  002A68  C5BA  F53D         	movff	sinf@y,___cosdf@x
  1478  002A6C  C5BB  F53E         	movff	sinf@y+1,___cosdf@x+1
  1479  002A70  C5BC  F53F         	movff	sinf@y+2,___cosdf@x+2
  1480  002A74  C5BD  F540         	movff	sinf@y+3,___cosdf@x+3
  1481  002A78  EC8F  F01D         	call	___cosdf	;wreg free
  1482  002A7C  C53D  F578         	movff	?___cosdf,___flneg@f1
  1483  002A80  C53E  F579         	movff	?___cosdf+1,___flneg@f1+1
  1484  002A84  C53F  F57A         	movff	?___cosdf+2,___flneg@f1+2
  1485  002A88  C540  F57B         	movff	?___cosdf+3,___flneg@f1+3
  1486  002A8C  ECD7  F021         	call	___flneg	;wreg free
  1487  002A90  C578  F5A0         	movff	?___flneg,?_sinf
  1488  002A94  C579  F5A1         	movff	?___flneg+1,?_sinf+1
  1489  002A98  C57A  F5A2         	movff	?___flneg+2,?_sinf+2
  1490  002A9C  C57B  F5A3         	movff	?___flneg+3,?_sinf+3
  1491  002AA0  EF82  F015         	goto	l1240
  1492  002AA4                     l3715:
  1493                           
  1494                           ; BSR set to: 5
  1495  002AA4  0E03               	movlw	3
  1496  002AA6  15A4               	andwf	sinf@n& (0+255),w,b
  1497  002AA8  6E4B               	movwf	??_sinf^(0+1280),c
  1498  002AAA  0E00               	movlw	0
  1499  002AAC  15A5               	andwf	(sinf@n+1)& (0+255),w,b
  1500  002AAE  6E4C               	movwf	(??_sinf+1)^(0+1280),c
  1501  002AB0  0E00               	movlw	0
  1502  002AB2  15A6               	andwf	(sinf@n+2)& (0+255),w,b
  1503  002AB4  6E4D               	movwf	(??_sinf+2)^(0+1280),c
  1504  002AB6  0E00               	movlw	0
  1505  002AB8  15A7               	andwf	(sinf@n+3)& (0+255),w,b
  1506  002ABA  6E4E               	movwf	(??_sinf+3)^(0+1280),c
  1507                           
  1508                           ; Switch on 2 bytes has been partitioned into a top level switch of size 1, and 2 sub-sw
      +                          itches
  1509                           ; Switch size 1, requested type "simple"
  1510                           ; Number of cases is 1, Range of values is 0 to 0
  1511                           ; switch strategies available:
  1512                           ; Name         Instructions Cycles
  1513                           ; simple_byte            4     3 (average)
  1514                           ;	Chosen strategy is simple_byte
  1515  002ABC  504E               	movf	(??_sinf+3)^(0+1280),w,c
  1516  002ABE  0A00               	xorlw	0	; case 0
  1517  002AC0  B4D8               	btfsc	status,2,c
  1518  002AC2  EF7B  F015         	goto	l3857
  1519  002AC6  EF34  F015         	goto	l3709
  1520  002ACA                     l3855:
  1521                           
  1522                           ; BSR set to: 5
  1523                           ; Switch on 2 bytes has been partitioned into a top level switch of size 1, and 1 sub-sw
      +                          itches
  1524                           ; Switch size 1, requested type "simple"
  1525                           ; Number of cases is 1, Range of values is 0 to 0
  1526                           ; switch strategies available:
  1527                           ; Name         Instructions Cycles
  1528                           ; simple_byte            4     3 (average)
  1529                           ;	Chosen strategy is simple_byte
  1530  002ACA  504C               	movf	(??_sinf+1)^(0+1280),w,c
  1531  002ACC  0A00               	xorlw	0	; case 0
  1532  002ACE  B4D8               	btfsc	status,2,c
  1533  002AD0  EF6C  F015         	goto	l3859
  1534  002AD4  EF34  F015         	goto	l3709
  1535  002AD8                     l3859:
  1536                           
  1537                           ; BSR set to: 5
  1538                           ; Switch size 1, requested type "simple"
  1539                           ; Number of cases is 3, Range of values is 0 to 2
  1540                           ; switch strategies available:
  1541                           ; Name         Instructions Cycles
  1542                           ; simple_byte           10     6 (average)
  1543                           ;	Chosen strategy is simple_byte
  1544  002AD8  504B               	movf	??_sinf^(0+1280),w,c
  1545  002ADA  0A00               	xorlw	0	; case 0
  1546  002ADC  B4D8               	btfsc	status,2,c
  1547  002ADE  EFEE  F014         	goto	l3697
  1548  002AE2  0A01               	xorlw	1	; case 1
  1549  002AE4  B4D8               	btfsc	status,2,c
  1550  002AE6  EF02  F015         	goto	l3701
  1551  002AEA  0A03               	xorlw	3	; case 2
  1552  002AEC  B4D8               	btfsc	status,2,c
  1553  002AEE  EF16  F015         	goto	l3705
  1554  002AF2  EF34  F015         	goto	l3709
  1555  002AF6                     l3857:
  1556                           
  1557                           ; BSR set to: 5
  1558                           ; Switch size 1, requested type "simple"
  1559                           ; Number of cases is 1, Range of values is 0 to 0
  1560                           ; switch strategies available:
  1561                           ; Name         Instructions Cycles
  1562                           ; simple_byte            4     3 (average)
  1563                           ;	Chosen strategy is simple_byte
  1564  002AF6  504D               	movf	(??_sinf+2)^(0+1280),w,c
  1565  002AF8  0A00               	xorlw	0	; case 0
  1566  002AFA  B4D8               	btfsc	status,2,c
  1567  002AFC  EF65  F015         	goto	l3855
  1568  002B00  EF34  F015         	goto	l3709
  1569  002B04                     l1240:
  1570  002B04  0012               	return		;funcret
  1571  002B06                     __end_of_sinf:
  1572                           	callstack 0
  1573                           
  1574 ;; *************** function ___sindf *****************
  1575 ;; Defined at:
  1576 ;;		line 26 in file "C:\Program Files\Microchip\xc8\v2.36\pic\sources\c99\common\__sindf.c"
  1577 ;; Parameters:    Size  Location     Type
  1578 ;;  x               4   28[BANK5 ] float 
  1579 ;; Auto vars:     Size  Location     Type
  1580 ;;  z               4   56[BANK5 ] float 
  1581 ;;  s               4   52[BANK5 ] float 
  1582 ;;  w               4   36[BANK5 ] float 
  1583 ;;  r               4   32[BANK5 ] float 
  1584 ;; Return value:  Size  Location     Type
  1585 ;;                  4   28[BANK5 ] float 
  1586 ;; Registers used:
  1587 ;;		wreg, status,2, status,0, prodl, prodh, cstack
  1588 ;; Tracked objects:
  1589 ;;		On entry : 0/0
  1590 ;;		On exit  : 0/0
  1591 ;;		Unchanged: 0/0
  1592 ;; Data sizes:     COMRAM   BANK5   BANK6   BANK7   BANK8   BANK9  BANK10  BANK11  BANK12  BANK13  BANK14  BANK15  BANK1
      +6  BANK17  BANK18  BANK19  BANK20  BANK21  BANK22  BANK23  BANK24  BANK25  BANK26  BANK27  BANK28  BANK29  BANK30  BANK3
      +1  BANK32  BANK33  BANK34  BANK35  BANK36
  1593 ;;      Params:         0       4       0       0       0       0       0       0       0       0       0       0       
      +0       0       0       0       0       0       0       0       0       0       0       0       0       0       0       
      +0       0       0       0       0       0
  1594 ;;      Locals:         0      28       0       0       0       0       0       0       0       0       0       0       
      +0       0       0       0       0       0       0       0       0       0       0       0       0       0       0       
      +0       0       0       0       0       0
  1595 ;;      Temps:          0       0       0       0       0       0       0       0       0       0       0       0       
      +0       0       0       0       0       0       0       0       0       0       0       0       0       0       0       
      +0       0       0       0       0       0
  1596 ;;      Totals:         0      32       0       0       0       0       0       0       0       0       0       0       
      +0       0       0       0       0       0       0       0       0       0       0       0       0       0       0       
      +0       0       0       0       0       0
  1597 ;;Total ram usage:       32 bytes
  1598 ;; Hardware stack levels used: 1
  1599 ;; Hardware stack levels required when called: 7
  1600 ;; This function calls:
  1601 ;;		___fladd
  1602 ;;		___flmul
  1603 ;; This function is called by:
  1604 ;;		_sinf
  1605 ;; This function uses a non-reentrant model
  1606 ;;
  1607                           
  1608                           	psect	text2
  1609  0038EC                     __ptext2:
  1610                           	callstack 0
  1611  0038EC                     ___sindf:
  1612                           	callstack 118
  1613  0038EC  C57C  F514         	movff	___sindf@x,___flmul@b
  1614  0038F0  C57D  F515         	movff	___sindf@x+1,___flmul@b+1
  1615  0038F4  C57E  F516         	movff	___sindf@x+2,___flmul@b+2
  1616  0038F8  C57F  F517         	movff	___sindf@x+3,___flmul@b+3
  1617  0038FC  C57C  F518         	movff	___sindf@x,___flmul@a
  1618  003900  C57D  F519         	movff	___sindf@x+1,___flmul@a+1
  1619  003904  C57E  F51A         	movff	___sindf@x+2,___flmul@a+2
  1620  003908  C57F  F51B         	movff	___sindf@x+3,___flmul@a+3
  1621  00390C  EC4F  F01A         	call	___flmul	;wreg free
  1622  003910  C514  F598         	movff	?___flmul,___sindf@z
  1623  003914  C515  F599         	movff	?___flmul+1,___sindf@z+1
  1624  003918  C516  F59A         	movff	?___flmul+2,___sindf@z+2
  1625  00391C  C517  F59B         	movff	?___flmul+3,___sindf@z+3
  1626  003920  C598  F514         	movff	___sindf@z,___flmul@b
  1627  003924  C599  F515         	movff	___sindf@z+1,___flmul@b+1
  1628  003928  C59A  F516         	movff	___sindf@z+2,___flmul@b+2
  1629  00392C  C59B  F517         	movff	___sindf@z+3,___flmul@b+3
  1630  003930  C598  F518         	movff	___sindf@z,___flmul@a
  1631  003934  C599  F519         	movff	___sindf@z+1,___flmul@a+1
  1632  003938  C59A  F51A         	movff	___sindf@z+2,___flmul@a+2
  1633  00393C  C59B  F51B         	movff	___sindf@z+3,___flmul@a+3
  1634  003940  EC4F  F01A         	call	___flmul	;wreg free
  1635  003944  C514  F584         	movff	?___flmul,___sindf@w
  1636  003948  C515  F585         	movff	?___flmul+1,___sindf@w+1
  1637  00394C  C516  F586         	movff	?___flmul+2,___sindf@w+2
  1638  003950  C517  F587         	movff	?___flmul+3,___sindf@w+3
  1639  003954  0E3C               	movlw	60
  1640  003956  6E18               	movwf	___flmul@a^(0+1280),c
  1641  003958  0E6C               	movlw	108
  1642  00395A  6E19               	movwf	(___flmul@a+1)^(0+1280),c
  1643  00395C  0E36               	movlw	54
  1644  00395E  6E1A               	movwf	(___flmul@a+2)^(0+1280),c
  1645  003960  0E36               	movlw	54
  1646  003962  6E1B               	movwf	(___flmul@a+3)^(0+1280),c
  1647  003964  C598  F514         	movff	___sindf@z,___flmul@b
  1648  003968  C599  F515         	movff	___sindf@z+1,___flmul@b+1
  1649  00396C  C59A  F516         	movff	___sindf@z+2,___flmul@b+2
  1650  003970  C59B  F517         	movff	___sindf@z+3,___flmul@b+3
  1651  003974  EC4F  F01A         	call	___flmul	;wreg free
  1652  003978  C514  F52D         	movff	?___flmul,___fladd@b
  1653  00397C  C515  F52E         	movff	?___flmul+1,___fladd@b+1
  1654  003980  C516  F52F         	movff	?___flmul+2,___fladd@b+2
  1655  003984  C517  F530         	movff	?___flmul+3,___fladd@b+3
  1656  003988  0ECF               	movlw	207
  1657  00398A  6E31               	movwf	___fladd@a^(0+1280),c
  1658  00398C  0E07               	movlw	7
  1659  00398E  6E32               	movwf	(___fladd@a+1)^(0+1280),c
  1660  003990  0E50               	movlw	80
  1661  003992  6E33               	movwf	(___fladd@a+2)^(0+1280),c
  1662  003994  0EB9               	movlw	185
  1663  003996  6E34               	movwf	(___fladd@a+3)^(0+1280),c
  1664  003998  ECEF  F017         	call	___fladd	;wreg free
  1665  00399C  C52D  F580         	movff	?___fladd,___sindf@r
  1666  0039A0  C52E  F581         	movff	?___fladd+1,___sindf@r+1
  1667  0039A4  C52F  F582         	movff	?___fladd+2,___sindf@r+2
  1668  0039A8  C530  F583         	movff	?___fladd+3,___sindf@r+3
  1669  0039AC  C598  F514         	movff	___sindf@z,___flmul@b
  1670  0039B0  C599  F515         	movff	___sindf@z+1,___flmul@b+1
  1671  0039B4  C59A  F516         	movff	___sindf@z+2,___flmul@b+2
  1672  0039B8  C59B  F517         	movff	___sindf@z+3,___flmul@b+3
  1673  0039BC  C57C  F518         	movff	___sindf@x,___flmul@a
  1674  0039C0  C57D  F519         	movff	___sindf@x+1,___flmul@a+1
  1675  0039C4  C57E  F51A         	movff	___sindf@x+2,___flmul@a+2
  1676  0039C8  C57F  F51B         	movff	___sindf@x+3,___flmul@a+3
  1677  0039CC  EC4F  F01A         	call	___flmul	;wreg free
  1678  0039D0  C514  F594         	movff	?___flmul,___sindf@s
  1679  0039D4  C515  F595         	movff	?___flmul+1,___sindf@s+1
  1680  0039D8  C516  F596         	movff	?___flmul+2,___sindf@s+2
  1681  0039DC  C517  F597         	movff	?___flmul+3,___sindf@s+3
  1682  0039E0  0EAB               	movlw	171
  1683  0039E2  6E31               	movwf	___fladd@a^(0+1280),c
  1684  0039E4  0EAA               	movlw	170
  1685  0039E6  6E32               	movwf	(___fladd@a+1)^(0+1280),c
  1686  0039E8  0E2A               	movlw	42
  1687  0039EA  6E33               	movwf	(___fladd@a+2)^(0+1280),c
  1688  0039EC  0EBE               	movlw	190
  1689  0039EE  6E34               	movwf	(___fladd@a+3)^(0+1280),c
  1690  0039F0  0E84               	movlw	132
  1691  0039F2  6E18               	movwf	___flmul@a^(0+1280),c
  1692  0039F4  0E88               	movlw	136
  1693  0039F6  6E19               	movwf	(___flmul@a+1)^(0+1280),c
  1694  0039F8  0E08               	movlw	8
  1695  0039FA  6E1A               	movwf	(___flmul@a+2)^(0+1280),c
  1696  0039FC  0E3C               	movlw	60
  1697  0039FE  6E1B               	movwf	(___flmul@a+3)^(0+1280),c
  1698  003A00  C598  F514         	movff	___sindf@z,___flmul@b
  1699  003A04  C599  F515         	movff	___sindf@z+1,___flmul@b+1
  1700  003A08  C59A  F516         	movff	___sindf@z+2,___flmul@b+2
  1701  003A0C  C59B  F517         	movff	___sindf@z+3,___flmul@b+3
  1702  003A10  EC4F  F01A         	call	___flmul	;wreg free
  1703  003A14  C514  F52D         	movff	?___flmul,___fladd@b
  1704  003A18  C515  F52E         	movff	?___flmul+1,___fladd@b+1
  1705  003A1C  C516  F52F         	movff	?___flmul+2,___fladd@b+2
  1706  003A20  C517  F530         	movff	?___flmul+3,___fladd@b+3
  1707  003A24  ECEF  F017         	call	___fladd	;wreg free
  1708  003A28  C52D  F588         	movff	?___fladd,___sindf$1984
  1709  003A2C  C52E  F589         	movff	?___fladd+1,___sindf$1984+1
  1710  003A30  C52F  F58A         	movff	?___fladd+2,___sindf$1984+2
  1711  003A34  C530  F58B         	movff	?___fladd+3,___sindf$1984+3
  1712  003A38  C584  F518         	movff	___sindf@w,___flmul@a
  1713  003A3C  C585  F519         	movff	___sindf@w+1,___flmul@a+1
  1714  003A40  C586  F51A         	movff	___sindf@w+2,___flmul@a+2
  1715  003A44  C587  F51B         	movff	___sindf@w+3,___flmul@a+3
  1716  003A48  C594  F514         	movff	___sindf@s,___flmul@b
  1717  003A4C  C595  F515         	movff	___sindf@s+1,___flmul@b+1
  1718  003A50  C596  F516         	movff	___sindf@s+2,___flmul@b+2
  1719  003A54  C597  F517         	movff	___sindf@s+3,___flmul@b+3
  1720  003A58  EC4F  F01A         	call	___flmul	;wreg free
  1721  003A5C  C514  F58C         	movff	?___flmul,___sindf$1985
  1722  003A60  C515  F58D         	movff	?___flmul+1,___sindf$1985+1
  1723  003A64  C516  F58E         	movff	?___flmul+2,___sindf$1985+2
  1724  003A68  C517  F58F         	movff	?___flmul+3,___sindf$1985+3
  1725  003A6C  C57C  F531         	movff	___sindf@x,___fladd@a
  1726  003A70  C57D  F532         	movff	___sindf@x+1,___fladd@a+1
  1727  003A74  C57E  F533         	movff	___sindf@x+2,___fladd@a+2
  1728  003A78  C57F  F534         	movff	___sindf@x+3,___fladd@a+3
  1729  003A7C  C594  F518         	movff	___sindf@s,___flmul@a
  1730  003A80  C595  F519         	movff	___sindf@s+1,___flmul@a+1
  1731  003A84  C596  F51A         	movff	___sindf@s+2,___flmul@a+2
  1732  003A88  C597  F51B         	movff	___sindf@s+3,___flmul@a+3
  1733  003A8C  C588  F514         	movff	___sindf$1984,___flmul@b
  1734  003A90  C589  F515         	movff	___sindf$1984+1,___flmul@b+1
  1735  003A94  C58A  F516         	movff	___sindf$1984+2,___flmul@b+2
  1736  003A98  C58B  F517         	movff	___sindf$1984+3,___flmul@b+3
  1737  003A9C  EC4F  F01A         	call	___flmul	;wreg free
  1738  003AA0  C514  F52D         	movff	?___flmul,___fladd@b
  1739  003AA4  C515  F52E         	movff	?___flmul+1,___fladd@b+1
  1740  003AA8  C516  F52F         	movff	?___flmul+2,___fladd@b+2
  1741  003AAC  C517  F530         	movff	?___flmul+3,___fladd@b+3
  1742  003AB0  ECEF  F017         	call	___fladd	;wreg free
  1743  003AB4  C52D  F590         	movff	?___fladd,___sindf$1986
  1744  003AB8  C52E  F591         	movff	?___fladd+1,___sindf$1986+1
  1745  003ABC  C52F  F592         	movff	?___fladd+2,___sindf$1986+2
  1746  003AC0  C530  F593         	movff	?___fladd+3,___sindf$1986+3
  1747  003AC4  C590  F52D         	movff	___sindf$1986,___fladd@b
  1748  003AC8  C591  F52E         	movff	___sindf$1986+1,___fladd@b+1
  1749  003ACC  C592  F52F         	movff	___sindf$1986+2,___fladd@b+2
  1750  003AD0  C593  F530         	movff	___sindf$1986+3,___fladd@b+3
  1751  003AD4  C580  F518         	movff	___sindf@r,___flmul@a
  1752  003AD8  C581  F519         	movff	___sindf@r+1,___flmul@a+1
  1753  003ADC  C582  F51A         	movff	___sindf@r+2,___flmul@a+2
  1754  003AE0  C583  F51B         	movff	___sindf@r+3,___flmul@a+3
  1755  003AE4  C58C  F514         	movff	___sindf$1985,___flmul@b
  1756  003AE8  C58D  F515         	movff	___sindf$1985+1,___flmul@b+1
  1757  003AEC  C58E  F516         	movff	___sindf$1985+2,___flmul@b+2
  1758  003AF0  C58F  F517         	movff	___sindf$1985+3,___flmul@b+3
  1759  003AF4  EC4F  F01A         	call	___flmul	;wreg free
  1760  003AF8  C514  F531         	movff	?___flmul,___fladd@a
  1761  003AFC  C515  F532         	movff	?___flmul+1,___fladd@a+1
  1762  003B00  C516  F533         	movff	?___flmul+2,___fladd@a+2
  1763  003B04  C517  F534         	movff	?___flmul+3,___fladd@a+3
  1764  003B08  ECEF  F017         	call	___fladd	;wreg free
  1765  003B0C  C52D  F57C         	movff	?___fladd,?___sindf
  1766  003B10  C52E  F57D         	movff	?___fladd+1,?___sindf+1
  1767  003B14  C52F  F57E         	movff	?___fladd+2,?___sindf+2
  1768  003B18  C530  F57F         	movff	?___fladd+3,?___sindf+3
  1769  003B1C  0012               	return		;funcret
  1770  003B1E                     __end_of___sindf:
  1771                           	callstack 0
  1772                           
  1773 ;; *************** function ___rem_pio2f *****************
  1774 ;; Defined at:
  1775 ;;		line 43 in file "C:\Program Files\Microchip\xc8\v2.36\pic\sources\c99\common\__rem_pio2f.c"
  1776 ;; Parameters:    Size  Location     Type
  1777 ;;  x               4   28[BANK5 ] float 
  1778 ;;  y               2   32[BANK5 ] PTR 
  1779 ;;		 -> sinf@y(4), 
  1780 ;; Auto vars:     Size  Location     Type
  1781 ;;  n               4   60[BANK5 ] long 
  1782 ;;  t               4   56[BANK5 ] float 
  1783 ;;  fn              4   52[BANK5 ] float 
  1784 ;;  u               4   44[BANK5 ] struct .
  1785 ;;  ix              4   38[BANK5 ] unsigned long 
  1786 ;;  ty              4   34[BANK5 ] [1]
  1787 ;;  tx              4    0        [1]
  1788 ;;  sign            2   42[BANK5 ] int 
  1789 ;; Return value:  Size  Location     Type
  1790 ;;                  2   28[BANK5 ] int 
  1791 ;; Registers used:
  1792 ;;		wreg, fsr2l, fsr2h, status,2, status,0, prodl, prodh, cstack
  1793 ;; Tracked objects:
  1794 ;;		On entry : 0/0
  1795 ;;		On exit  : 0/0
  1796 ;;		Unchanged: 0/0
  1797 ;; Data sizes:     COMRAM   BANK5   BANK6   BANK7   BANK8   BANK9  BANK10  BANK11  BANK12  BANK13  BANK14  BANK15  BANK1
      +6  BANK17  BANK18  BANK19  BANK20  BANK21  BANK22  BANK23  BANK24  BANK25  BANK26  BANK27  BANK28  BANK29  BANK30  BANK3
      +1  BANK32  BANK33  BANK34  BANK35  BANK36
  1798 ;;      Params:         0       6       0       0       0       0       0       0       0       0       0       0       
      +0       0       0       0       0       0       0       0       0       0       0       0       0       0       0       
      +0       0       0       0       0       0
  1799 ;;      Locals:         0      30       0       0       0       0       0       0       0       0       0       0       
      +0       0       0       0       0       0       0       0       0       0       0       0       0       0       0       
      +0       0       0       0       0       0
  1800 ;;      Temps:          4       0       0       0       0       0       0       0       0       0       0       0       
      +0       0       0       0       0       0       0       0       0       0       0       0       0       0       0       
      +0       0       0       0       0       0
  1801 ;;      Totals:         4      36       0       0       0       0       0       0       0       0       0       0       
      +0       0       0       0       0       0       0       0       0       0       0       0       0       0       0       
      +0       0       0       0       0       0
  1802 ;;Total ram usage:       40 bytes
  1803 ;; Hardware stack levels used: 1
  1804 ;; Hardware stack levels required when called: 8
  1805 ;; This function calls:
  1806 ;;		___fladd
  1807 ;;		___flmul
  1808 ;;		___flneg
  1809 ;;		___flsub
  1810 ;;		___fltol
  1811 ;;		___xxtofl
  1812 ;;		_fabsf
  1813 ;; This function is called by:
  1814 ;;		_sinf
  1815 ;; This function uses a non-reentrant model
  1816 ;;
  1817                           
  1818                           	psect	text3
  1819  002B06                     __ptext3:
  1820                           	callstack 0
  1821  002B06                     ___rem_pio2f:
  1822                           	callstack 117
  1823  002B06  C5CE  F58C         	movff	___rem_pio2f@F532,___rem_pio2f@u
  1824  002B0A  C5CF  F58D         	movff	___rem_pio2f@F532+1,___rem_pio2f@u+1
  1825  002B0E  C5D0  F58E         	movff	___rem_pio2f@F532+2,___rem_pio2f@u+2
  1826  002B12  C5D1  F58F         	movff	___rem_pio2f@F532+3,___rem_pio2f@u+3
  1827  002B16  C57C  F58C         	movff	___rem_pio2f@x,___rem_pio2f@u
  1828  002B1A  C57D  F58D         	movff	___rem_pio2f@x+1,___rem_pio2f@u+1
  1829  002B1E  C57E  F58E         	movff	___rem_pio2f@x+2,___rem_pio2f@u+2
  1830  002B22  C57F  F58F         	movff	___rem_pio2f@x+3,___rem_pio2f@u+3
  1831  002B26  C58C  F547         	movff	___rem_pio2f@u,??___rem_pio2f
  1832  002B2A  C58D  F548         	movff	___rem_pio2f@u+1,??___rem_pio2f+1
  1833  002B2E  C58E  F549         	movff	___rem_pio2f@u+2,??___rem_pio2f+2
  1834  002B32  C58F  F54A         	movff	___rem_pio2f@u+3,??___rem_pio2f+3
  1835  002B36  0E20               	movlw	32
  1836  002B38  EFA3  F015         	goto	u2680
  1837  002B3C                     u2685:
  1838  002B3C  90D8               	bcf	status,0,c
  1839  002B3E  324A               	rrcf	(??___rem_pio2f+3)^(0+1280),f,c
  1840  002B40  3249               	rrcf	(??___rem_pio2f+2)^(0+1280),f,c
  1841  002B42  3248               	rrcf	(??___rem_pio2f+1)^(0+1280),f,c
  1842  002B44  3247               	rrcf	??___rem_pio2f^(0+1280),f,c
  1843  002B46                     u2680:
  1844  002B46  2EE8               	decfsz	wreg,f,c
  1845  002B48  EF9E  F015         	goto	u2685
  1846  002B4C  C547  F58A         	movff	??___rem_pio2f,___rem_pio2f@sign
  1847  002B50  C548  F58B         	movff	??___rem_pio2f+1,___rem_pio2f@sign+1
  1848  002B54  0EFF               	movlw	255
  1849  002B56  0105               	movlb	5	; () banked
  1850  002B58  158C               	andwf	___rem_pio2f@u& (0+255),w,b
  1851  002B5A  6F86               	movwf	___rem_pio2f@ix& (0+255),b
  1852  002B5C  0EFF               	movlw	255
  1853  002B5E  158D               	andwf	(___rem_pio2f@u+1)& (0+255),w,b
  1854  002B60  6F87               	movwf	(___rem_pio2f@ix+1)& (0+255),b
  1855  002B62  0EFF               	movlw	255
  1856  002B64  158E               	andwf	(___rem_pio2f@u+2)& (0+255),w,b
  1857  002B66  6F88               	movwf	(___rem_pio2f@ix+2)& (0+255),b
  1858  002B68  0E7F               	movlw	127
  1859  002B6A  158F               	andwf	(___rem_pio2f@u+3)& (0+255),w,b
  1860  002B6C  6F89               	movwf	(___rem_pio2f@ix+3)& (0+255),b
  1861  002B6E  0E80               	movlw	128
  1862  002B70  5D88               	subwf	(___rem_pio2f@ix+2)& (0+255),w,b
  1863  002B72  0E7F               	movlw	127
  1864  002B74  5989               	subwfb	(___rem_pio2f@ix+3)& (0+255),w,b
  1865  002B76  A0D8               	btfss	status,0,c
  1866  002B78  EFC0  F015         	goto	u2691
  1867  002B7C  EFC2  F015         	goto	u2690
  1868  002B80                     u2691:
  1869  002B80  EFED  F015         	goto	l3571
  1870  002B84                     u2690:
  1871  002B84                     
  1872                           ; BSR set to: 5
  1873  002B84  C57C  F53D         	movff	___rem_pio2f@x,___flsub@b
  1874  002B88  C57D  F53E         	movff	___rem_pio2f@x+1,___flsub@b+1
  1875  002B8C  C57E  F53F         	movff	___rem_pio2f@x+2,___flsub@b+2
  1876  002B90  C57F  F540         	movff	___rem_pio2f@x+3,___flsub@b+3
  1877  002B94  C57C  F541         	movff	___rem_pio2f@x,___flsub@a
  1878  002B98  C57D  F542         	movff	___rem_pio2f@x+1,___flsub@a+1
  1879  002B9C  C57E  F543         	movff	___rem_pio2f@x+2,___flsub@a+2
  1880  002BA0  C57F  F544         	movff	___rem_pio2f@x+3,___flsub@a+3
  1881  002BA4  EC74  F021         	call	___flsub	;wreg free
  1882  002BA8  0061  F600  F4D9   	movff	___rem_pio2f@y,fsr2l
  1883  002BAE  0061  F604  F4DA   	movff	___rem_pio2f@y+1,fsr2h
  1884  002BB4  0061  F4F4  F4DE   	movff	?___flsub,postinc2
  1885  002BBA  0061  F4F8  F4DE   	movff	?___flsub+1,postinc2
  1886  002BC0  0061  F4FC  F4DE   	movff	?___flsub+2,postinc2
  1887  002BC6  0061  F500  F4DE   	movff	?___flsub+3,postinc2
  1888  002BCC  0E00               	movlw	0
  1889  002BCE  0105               	movlb	5	; () banked
  1890  002BD0  6F7D               	movwf	(?___rem_pio2f+1)& (0+255),b
  1891  002BD2  0E00               	movlw	0
  1892  002BD4  6F7C               	movwf	?___rem_pio2f& (0+255),b
  1893  002BD6  EFEE  F017         	goto	l1292
  1894  002BDA                     l3571:
  1895                           
  1896                           ; BSR set to: 5
  1897  002BDA  0EDB               	movlw	219
  1898  002BDC  5D86               	subwf	___rem_pio2f@ix& (0+255),w,b
  1899  002BDE  0E0F               	movlw	15
  1900  002BE0  5987               	subwfb	(___rem_pio2f@ix+1)& (0+255),w,b
  1901  002BE2  0EC9               	movlw	201
  1902  002BE4  5988               	subwfb	(___rem_pio2f@ix+2)& (0+255),w,b
  1903  002BE6  0E4D               	movlw	77
  1904  002BE8  5989               	subwfb	(___rem_pio2f@ix+3)& (0+255),w,b
  1905  002BEA  B0D8               	btfsc	status,0,c
  1906  002BEC  EFFA  F015         	goto	u2701
  1907  002BF0  EFFC  F015         	goto	u2700
  1908  002BF4                     u2701:
  1909  002BF4  EFFE  F016         	goto	l3591
  1910  002BF8                     u2700:
  1911  002BF8                     
  1912                           ; BSR set to: 5
  1913  002BF8  C57C  F506         	movff	___rem_pio2f@x,fabsf@x
  1914  002BFC  C57D  F507         	movff	___rem_pio2f@x+1,fabsf@x+1
  1915  002C00  C57E  F508         	movff	___rem_pio2f@x+2,fabsf@x+2
  1916  002C04  C57F  F509         	movff	___rem_pio2f@x+3,fabsf@x+3
  1917  002C08  EC11  F022         	call	_fabsf	;wreg free
  1918  002C0C  C506  F598         	movff	?_fabsf,___rem_pio2f@t
  1919  002C10  C507  F599         	movff	?_fabsf+1,___rem_pio2f@t+1
  1920  002C14  C508  F59A         	movff	?_fabsf+2,___rem_pio2f@t+2
  1921  002C18  C509  F59B         	movff	?_fabsf+3,___rem_pio2f@t+3
  1922  002C1C  0E00               	movlw	0
  1923  002C1E  6E31               	movwf	___fladd@a^(0+1280),c
  1924  002C20  0E00               	movlw	0
  1925  002C22  6E32               	movwf	(___fladd@a+1)^(0+1280),c
  1926  002C24  0E00               	movlw	0
  1927  002C26  6E33               	movwf	(___fladd@a+2)^(0+1280),c
  1928  002C28  0E3F               	movlw	63
  1929  002C2A  6E34               	movwf	(___fladd@a+3)^(0+1280),c
  1930  002C2C  0E83               	movlw	131
  1931  002C2E  6E18               	movwf	___flmul@a^(0+1280),c
  1932  002C30  0EF9               	movlw	249
  1933  002C32  6E19               	movwf	(___flmul@a+1)^(0+1280),c
  1934  002C34  0E22               	movlw	34
  1935  002C36  6E1A               	movwf	(___flmul@a+2)^(0+1280),c
  1936  002C38  0E3F               	movlw	63
  1937  002C3A  6E1B               	movwf	(___flmul@a+3)^(0+1280),c
  1938  002C3C  C598  F514         	movff	___rem_pio2f@t,___flmul@b
  1939  002C40  C599  F515         	movff	___rem_pio2f@t+1,___flmul@b+1
  1940  002C44  C59A  F516         	movff	___rem_pio2f@t+2,___flmul@b+2
  1941  002C48  C59B  F517         	movff	___rem_pio2f@t+3,___flmul@b+3
  1942  002C4C  EC4F  F01A         	call	___flmul	;wreg free
  1943  002C50  C514  F52D         	movff	?___flmul,___fladd@b
  1944  002C54  C515  F52E         	movff	?___flmul+1,___fladd@b+1
  1945  002C58  C516  F52F         	movff	?___flmul+2,___fladd@b+2
  1946  002C5C  C517  F530         	movff	?___flmul+3,___fladd@b+3
  1947  002C60  ECEF  F017         	call	___fladd	;wreg free
  1948  002C64  C52D  F53D         	movff	?___fladd,___fltol@f1
  1949  002C68  C52E  F53E         	movff	?___fladd+1,___fltol@f1+1
  1950  002C6C  C52F  F53F         	movff	?___fladd+2,___fltol@f1+2
  1951  002C70  C530  F540         	movff	?___fladd+3,___fltol@f1+3
  1952  002C74  ECFD  F01F         	call	___fltol	;wreg free
  1953  002C78  C53D  F59C         	movff	?___fltol,___rem_pio2f@n
  1954  002C7C  C53E  F59D         	movff	?___fltol+1,___rem_pio2f@n+1
  1955  002C80  C53F  F59E         	movff	?___fltol+2,___rem_pio2f@n+2
  1956  002C84  C540  F59F         	movff	?___fltol+3,___rem_pio2f@n+3
  1957  002C88  C59C  F506         	movff	___rem_pio2f@n,___xxtofl@val
  1958  002C8C  C59D  F507         	movff	___rem_pio2f@n+1,___xxtofl@val+1
  1959  002C90  C59E  F508         	movff	___rem_pio2f@n+2,___xxtofl@val+2
  1960  002C94  C59F  F509         	movff	___rem_pio2f@n+3,___xxtofl@val+3
  1961  002C98  0E01               	movlw	1
  1962  002C9A  EC8E  F01E         	call	___xxtofl
  1963  002C9E  C506  F594         	movff	?___xxtofl,___rem_pio2f@fn
  1964  002CA2  C507  F595         	movff	?___xxtofl+1,___rem_pio2f@fn+1
  1965  002CA6  C508  F596         	movff	?___xxtofl+2,___rem_pio2f@fn+2
  1966  002CAA  C509  F597         	movff	?___xxtofl+3,___rem_pio2f@fn+3
  1967  002CAE  0EDA               	movlw	218
  1968  002CB0  6E18               	movwf	___flmul@a^(0+1280),c
  1969  002CB2  0E0F               	movlw	15
  1970  002CB4  6E19               	movwf	(___flmul@a+1)^(0+1280),c
  1971  002CB6  0EC9               	movlw	201
  1972  002CB8  6E1A               	movwf	(___flmul@a+2)^(0+1280),c
  1973  002CBA  0E3F               	movlw	63
  1974  002CBC  6E1B               	movwf	(___flmul@a+3)^(0+1280),c
  1975  002CBE  C594  F514         	movff	___rem_pio2f@fn,___flmul@b
  1976  002CC2  C595  F515         	movff	___rem_pio2f@fn+1,___flmul@b+1
  1977  002CC6  C596  F516         	movff	___rem_pio2f@fn+2,___flmul@b+2
  1978  002CCA  C597  F517         	movff	___rem_pio2f@fn+3,___flmul@b+3
  1979  002CCE  EC4F  F01A         	call	___flmul	;wreg free
  1980  002CD2  C514  F541         	movff	?___flmul,___flsub@a
  1981  002CD6  C515  F542         	movff	?___flmul+1,___flsub@a+1
  1982  002CDA  C516  F543         	movff	?___flmul+2,___flsub@a+2
  1983  002CDE  C517  F544         	movff	?___flmul+3,___flsub@a+3
  1984  002CE2  C598  F53D         	movff	___rem_pio2f@t,___flsub@b
  1985  002CE6  C599  F53E         	movff	___rem_pio2f@t+1,___flsub@b+1
  1986  002CEA  C59A  F53F         	movff	___rem_pio2f@t+2,___flsub@b+2
  1987  002CEE  C59B  F540         	movff	___rem_pio2f@t+3,___flsub@b+3
  1988  002CF2  EC74  F021         	call	___flsub	;wreg free
  1989  002CF6  C53D  F590         	movff	?___flsub,___rem_pio2f$1983
  1990  002CFA  C53E  F591         	movff	?___flsub+1,___rem_pio2f$1983+1
  1991  002CFE  C53F  F592         	movff	?___flsub+2,___rem_pio2f$1983+2
  1992  002D02  C540  F593         	movff	?___flsub+3,___rem_pio2f$1983+3
  1993  002D06  C590  F53D         	movff	___rem_pio2f$1983,___flsub@b
  1994  002D0A  C591  F53E         	movff	___rem_pio2f$1983+1,___flsub@b+1
  1995  002D0E  C592  F53F         	movff	___rem_pio2f$1983+2,___flsub@b+2
  1996  002D12  C593  F540         	movff	___rem_pio2f$1983+3,___flsub@b+3
  1997  002D16  0EA3               	movlw	163
  1998  002D18  6E18               	movwf	___flmul@a^(0+1280),c
  1999  002D1A  0E85               	movlw	133
  2000  002D1C  6E19               	movwf	(___flmul@a+1)^(0+1280),c
  2001  002D1E  0E88               	movlw	136
  2002  002D20  6E1A               	movwf	(___flmul@a+2)^(0+1280),c
  2003  002D22  0E32               	movlw	50
  2004  002D24  6E1B               	movwf	(___flmul@a+3)^(0+1280),c
  2005  002D26  C594  F514         	movff	___rem_pio2f@fn,___flmul@b
  2006  002D2A  C595  F515         	movff	___rem_pio2f@fn+1,___flmul@b+1
  2007  002D2E  C596  F516         	movff	___rem_pio2f@fn+2,___flmul@b+2
  2008  002D32  C597  F517         	movff	___rem_pio2f@fn+3,___flmul@b+3
  2009  002D36  EC4F  F01A         	call	___flmul	;wreg free
  2010  002D3A  C514  F541         	movff	?___flmul,___flsub@a
  2011  002D3E  C515  F542         	movff	?___flmul+1,___flsub@a+1
  2012  002D42  C516  F543         	movff	?___flmul+2,___flsub@a+2
  2013  002D46  C517  F544         	movff	?___flmul+3,___flsub@a+3
  2014  002D4A  EC74  F021         	call	___flsub	;wreg free
  2015  002D4E  0061  F600  F4D9   	movff	___rem_pio2f@y,fsr2l
  2016  002D54  0061  F604  F4DA   	movff	___rem_pio2f@y+1,fsr2h
  2017  002D5A  0061  F4F4  F4DE   	movff	?___flsub,postinc2
  2018  002D60  0061  F4F8  F4DE   	movff	?___flsub+1,postinc2
  2019  002D66  0061  F4FC  F4DE   	movff	?___flsub+2,postinc2
  2020  002D6C  0061  F500  F4DE   	movff	?___flsub+3,postinc2
  2021  002D72  0105               	movlb	5	; () banked
  2022  002D74  518A               	movf	___rem_pio2f@sign& (0+255),w,b
  2023  002D76  118B               	iorwf	(___rem_pio2f@sign+1)& (0+255),w,b
  2024  002D78  B4D8               	btfsc	status,2,c
  2025  002D7A  EFC1  F016         	goto	u2711
  2026  002D7E  EFC3  F016         	goto	u2710
  2027  002D82                     u2711:
  2028  002D82  EFF8  F016         	goto	l1294
  2029  002D86                     u2710:
  2030  002D86                     
  2031                           ; BSR set to: 5
  2032  002D86  0061  F600  F4D9   	movff	___rem_pio2f@y,fsr2l
  2033  002D8C  0061  F604  F4DA   	movff	___rem_pio2f@y+1,fsr2h
  2034  002D92  0061 F378  F578    	movff	postinc2,___flneg@f1
  2035  002D98  0061 F378  F579    	movff	postinc2,___flneg@f1+1
  2036  002D9E  0061 F378  F57A    	movff	postinc2,___flneg@f1+2
  2037  002DA4  0061 F378  F57B    	movff	postinc2,___flneg@f1+3
  2038  002DAA  ECD7  F021         	call	___flneg	;wreg free
  2039  002DAE  0061  F600  F4D9   	movff	___rem_pio2f@y,fsr2l
  2040  002DB4  0061  F604  F4DA   	movff	___rem_pio2f@y+1,fsr2h
  2041  002DBA  0105               	movlb	5	; () banked
  2042  002DBC  0061  F5E0  F4DE   	movff	?___flneg,postinc2
  2043  002DC2  0061  F5E4  F4DE   	movff	?___flneg+1,postinc2
  2044  002DC8  0061  F5E8  F4DE   	movff	?___flneg+2,postinc2
  2045  002DCE  0061  F5EC  F4DE   	movff	?___flneg+3,postinc2
  2046  002DD4                     l3587:
  2047                           
  2048                           ; BSR set to: 5
  2049  002DD4  C59C  F547         	movff	___rem_pio2f@n,??___rem_pio2f
  2050  002DD8  C59D  F548         	movff	___rem_pio2f@n+1,??___rem_pio2f+1
  2051  002DDC  1E47               	comf	??___rem_pio2f^(0+1280),f,c
  2052  002DDE  1E48               	comf	(??___rem_pio2f+1)^(0+1280),f,c
  2053  002DE0  4A47               	infsnz	??___rem_pio2f^(0+1280),f,c
  2054  002DE2  2A48               	incf	(??___rem_pio2f+1)^(0+1280),f,c
  2055  002DE4  C547  F57C         	movff	??___rem_pio2f,?___rem_pio2f
  2056  002DE8  C548  F57D         	movff	??___rem_pio2f+1,?___rem_pio2f+1
  2057  002DEC  EFEE  F017         	goto	l1292
  2058  002DF0                     l1294:
  2059                           
  2060                           ; BSR set to: 5
  2061  002DF0  C59C  F57C         	movff	___rem_pio2f@n,?___rem_pio2f
  2062  002DF4  C59D  F57D         	movff	___rem_pio2f@n+1,?___rem_pio2f+1
  2063  002DF8  EFEE  F017         	goto	l1292
  2064  002DFC                     l3591:
  2065                           
  2066                           ; BSR set to: 5
  2067  002DFC  C57C  F506         	movff	___rem_pio2f@x,fabsf@x
  2068  002E00  C57D  F507         	movff	___rem_pio2f@x+1,fabsf@x+1
  2069  002E04  C57E  F508         	movff	___rem_pio2f@x+2,fabsf@x+2
  2070  002E08  C57F  F509         	movff	___rem_pio2f@x+3,fabsf@x+3
  2071  002E0C  EC11  F022         	call	_fabsf	;wreg free
  2072  002E10  C506  F598         	movff	?_fabsf,___rem_pio2f@t
  2073  002E14  C507  F599         	movff	?_fabsf+1,___rem_pio2f@t+1
  2074  002E18  C508  F59A         	movff	?_fabsf+2,___rem_pio2f@t+2
  2075  002E1C  C509  F59B         	movff	?_fabsf+3,___rem_pio2f@t+3
  2076  002E20  0E00               	movlw	0
  2077  002E22  6E31               	movwf	___fladd@a^(0+1280),c
  2078  002E24  0E00               	movlw	0
  2079  002E26  6E32               	movwf	(___fladd@a+1)^(0+1280),c
  2080  002E28  0E00               	movlw	0
  2081  002E2A  6E33               	movwf	(___fladd@a+2)^(0+1280),c
  2082  002E2C  0E3F               	movlw	63
  2083  002E2E  6E34               	movwf	(___fladd@a+3)^(0+1280),c
  2084  002E30  0E83               	movlw	131
  2085  002E32  6E18               	movwf	___flmul@a^(0+1280),c
  2086  002E34  0EF9               	movlw	249
  2087  002E36  6E19               	movwf	(___flmul@a+1)^(0+1280),c
  2088  002E38  0E22               	movlw	34
  2089  002E3A  6E1A               	movwf	(___flmul@a+2)^(0+1280),c
  2090  002E3C  0E3F               	movlw	63
  2091  002E3E  6E1B               	movwf	(___flmul@a+3)^(0+1280),c
  2092  002E40  C598  F514         	movff	___rem_pio2f@t,___flmul@b
  2093  002E44  C599  F515         	movff	___rem_pio2f@t+1,___flmul@b+1
  2094  002E48  C59A  F516         	movff	___rem_pio2f@t+2,___flmul@b+2
  2095  002E4C  C59B  F517         	movff	___rem_pio2f@t+3,___flmul@b+3
  2096  002E50  EC4F  F01A         	call	___flmul	;wreg free
  2097  002E54  C514  F52D         	movff	?___flmul,___fladd@b
  2098  002E58  C515  F52E         	movff	?___flmul+1,___fladd@b+1
  2099  002E5C  C516  F52F         	movff	?___flmul+2,___fladd@b+2
  2100  002E60  C517  F530         	movff	?___flmul+3,___fladd@b+3
  2101  002E64  ECEF  F017         	call	___fladd	;wreg free
  2102  002E68  C52D  F53D         	movff	?___fladd,___fltol@f1
  2103  002E6C  C52E  F53E         	movff	?___fladd+1,___fltol@f1+1
  2104  002E70  C52F  F53F         	movff	?___fladd+2,___fltol@f1+2
  2105  002E74  C530  F540         	movff	?___fladd+3,___fltol@f1+3
  2106  002E78  ECFD  F01F         	call	___fltol	;wreg free
  2107  002E7C  C53D  F59C         	movff	?___fltol,___rem_pio2f@n
  2108  002E80  C53E  F59D         	movff	?___fltol+1,___rem_pio2f@n+1
  2109  002E84  C53F  F59E         	movff	?___fltol+2,___rem_pio2f@n+2
  2110  002E88  C540  F59F         	movff	?___fltol+3,___rem_pio2f@n+3
  2111  002E8C  C59C  F506         	movff	___rem_pio2f@n,___xxtofl@val
  2112  002E90  C59D  F507         	movff	___rem_pio2f@n+1,___xxtofl@val+1
  2113  002E94  C59E  F508         	movff	___rem_pio2f@n+2,___xxtofl@val+2
  2114  002E98  C59F  F509         	movff	___rem_pio2f@n+3,___xxtofl@val+3
  2115  002E9C  0E01               	movlw	1
  2116  002E9E  EC8E  F01E         	call	___xxtofl
  2117  002EA2  C506  F594         	movff	?___xxtofl,___rem_pio2f@fn
  2118  002EA6  C507  F595         	movff	?___xxtofl+1,___rem_pio2f@fn+1
  2119  002EAA  C508  F596         	movff	?___xxtofl+2,___rem_pio2f@fn+2
  2120  002EAE  C509  F597         	movff	?___xxtofl+3,___rem_pio2f@fn+3
  2121  002EB2  0EDA               	movlw	218
  2122  002EB4  6E18               	movwf	___flmul@a^(0+1280),c
  2123  002EB6  0E0F               	movlw	15
  2124  002EB8  6E19               	movwf	(___flmul@a+1)^(0+1280),c
  2125  002EBA  0EC9               	movlw	201
  2126  002EBC  6E1A               	movwf	(___flmul@a+2)^(0+1280),c
  2127  002EBE  0E3F               	movlw	63
  2128  002EC0  6E1B               	movwf	(___flmul@a+3)^(0+1280),c
  2129  002EC2  C594  F514         	movff	___rem_pio2f@fn,___flmul@b
  2130  002EC6  C595  F515         	movff	___rem_pio2f@fn+1,___flmul@b+1
  2131  002ECA  C596  F516         	movff	___rem_pio2f@fn+2,___flmul@b+2
  2132  002ECE  C597  F517         	movff	___rem_pio2f@fn+3,___flmul@b+3
  2133  002ED2  EC4F  F01A         	call	___flmul	;wreg free
  2134  002ED6  C514  F541         	movff	?___flmul,___flsub@a
  2135  002EDA  C515  F542         	movff	?___flmul+1,___flsub@a+1
  2136  002EDE  C516  F543         	movff	?___flmul+2,___flsub@a+2
  2137  002EE2  C517  F544         	movff	?___flmul+3,___flsub@a+3
  2138  002EE6  C598  F53D         	movff	___rem_pio2f@t,___flsub@b
  2139  002EEA  C599  F53E         	movff	___rem_pio2f@t+1,___flsub@b+1
  2140  002EEE  C59A  F53F         	movff	___rem_pio2f@t+2,___flsub@b+2
  2141  002EF2  C59B  F540         	movff	___rem_pio2f@t+3,___flsub@b+3
  2142  002EF6  EC74  F021         	call	___flsub	;wreg free
  2143  002EFA  C53D  F590         	movff	?___flsub,___rem_pio2f$1983
  2144  002EFE  C53E  F591         	movff	?___flsub+1,___rem_pio2f$1983+1
  2145  002F02  C53F  F592         	movff	?___flsub+2,___rem_pio2f$1983+2
  2146  002F06  C540  F593         	movff	?___flsub+3,___rem_pio2f$1983+3
  2147  002F0A  C590  F53D         	movff	___rem_pio2f$1983,___flsub@b
  2148  002F0E  C591  F53E         	movff	___rem_pio2f$1983+1,___flsub@b+1
  2149  002F12  C592  F53F         	movff	___rem_pio2f$1983+2,___flsub@b+2
  2150  002F16  C593  F540         	movff	___rem_pio2f$1983+3,___flsub@b+3
  2151  002F1A  0EA3               	movlw	163
  2152  002F1C  6E18               	movwf	___flmul@a^(0+1280),c
  2153  002F1E  0E85               	movlw	133
  2154  002F20  6E19               	movwf	(___flmul@a+1)^(0+1280),c
  2155  002F22  0E88               	movlw	136
  2156  002F24  6E1A               	movwf	(___flmul@a+2)^(0+1280),c
  2157  002F26  0E32               	movlw	50
  2158  002F28  6E1B               	movwf	(___flmul@a+3)^(0+1280),c
  2159  002F2A  C594  F514         	movff	___rem_pio2f@fn,___flmul@b
  2160  002F2E  C595  F515         	movff	___rem_pio2f@fn+1,___flmul@b+1
  2161  002F32  C596  F516         	movff	___rem_pio2f@fn+2,___flmul@b+2
  2162  002F36  C597  F517         	movff	___rem_pio2f@fn+3,___flmul@b+3
  2163  002F3A  EC4F  F01A         	call	___flmul	;wreg free
  2164  002F3E  C514  F541         	movff	?___flmul,___flsub@a
  2165  002F42  C515  F542         	movff	?___flmul+1,___flsub@a+1
  2166  002F46  C516  F543         	movff	?___flmul+2,___flsub@a+2
  2167  002F4A  C517  F544         	movff	?___flmul+3,___flsub@a+3
  2168  002F4E  EC74  F021         	call	___flsub	;wreg free
  2169  002F52  C53D  F582         	movff	?___flsub,___rem_pio2f@ty
  2170  002F56  C53E  F583         	movff	?___flsub+1,___rem_pio2f@ty+1
  2171  002F5A  C53F  F584         	movff	?___flsub+2,___rem_pio2f@ty+2
  2172  002F5E  C540  F585         	movff	?___flsub+3,___rem_pio2f@ty+3
  2173  002F62  0105               	movlb	5	; () banked
  2174  002F64  518A               	movf	___rem_pio2f@sign& (0+255),w,b
  2175  002F66  118B               	iorwf	(___rem_pio2f@sign+1)& (0+255),w,b
  2176  002F68  B4D8               	btfsc	status,2,c
  2177  002F6A  EFB9  F017         	goto	u2721
  2178  002F6E  EFBB  F017         	goto	u2720
  2179  002F72                     u2721:
  2180  002F72  EFDA  F017         	goto	l3609
  2181  002F76                     u2720:
  2182  002F76                     
  2183                           ; BSR set to: 5
  2184  002F76  C582  F578         	movff	___rem_pio2f@ty,___flneg@f1
  2185  002F7A  C583  F579         	movff	___rem_pio2f@ty+1,___flneg@f1+1
  2186  002F7E  C584  F57A         	movff	___rem_pio2f@ty+2,___flneg@f1+2
  2187  002F82  C585  F57B         	movff	___rem_pio2f@ty+3,___flneg@f1+3
  2188  002F86  ECD7  F021         	call	___flneg	;wreg free
  2189  002F8A  0061  F600  F4D9   	movff	___rem_pio2f@y,fsr2l
  2190  002F90  0061  F604  F4DA   	movff	___rem_pio2f@y+1,fsr2h
  2191  002F96  0105               	movlb	5	; () banked
  2192  002F98  0061  F5E0  F4DE   	movff	?___flneg,postinc2
  2193  002F9E  0061  F5E4  F4DE   	movff	?___flneg+1,postinc2
  2194  002FA4  0061  F5E8  F4DE   	movff	?___flneg+2,postinc2
  2195  002FAA  0061  F5EC  F4DE   	movff	?___flneg+3,postinc2
  2196  002FB0  EFEA  F016         	goto	l3587
  2197  002FB4                     l3609:
  2198                           
  2199                           ; BSR set to: 5
  2200  002FB4  0061  F600  F4D9   	movff	___rem_pio2f@y,fsr2l
  2201  002FBA  0061  F604  F4DA   	movff	___rem_pio2f@y+1,fsr2h
  2202  002FC0  0061  F608  F4DE   	movff	___rem_pio2f@ty,postinc2
  2203  002FC6  0061  F60C  F4DE   	movff	___rem_pio2f@ty+1,postinc2
  2204  002FCC  0061  F610  F4DE   	movff	___rem_pio2f@ty+2,postinc2
  2205  002FD2  0061  F614  F4DE   	movff	___rem_pio2f@ty+3,postinc2
  2206  002FD8  EFF8  F016         	goto	l1294
  2207  002FDC                     l1292:
  2208                           
  2209                           ; BSR set to: 5
  2210  002FDC  0012               	return		;funcret
  2211  002FDE                     __end_of___rem_pio2f:
  2212                           	callstack 0
  2213                           
  2214 ;; *************** function _fabsf *****************
  2215 ;; Defined at:
  2216 ;;		line 4 in file "C:\Program Files\Microchip\xc8\v2.36\pic\sources\c99\common\fabsf.c"
  2217 ;; Parameters:    Size  Location     Type
  2218 ;;  x               4    5[COMRAM] float 
  2219 ;; Auto vars:     Size  Location     Type
  2220 ;;  u               4    9[COMRAM] struct .
  2221 ;; Return value:  Size  Location     Type
  2222 ;;                  4    5[COMRAM] float 
  2223 ;; Registers used:
  2224 ;;		status,2, status,0
  2225 ;; Tracked objects:
  2226 ;;		On entry : 0/0
  2227 ;;		On exit  : 0/0
  2228 ;;		Unchanged: 0/0
  2229 ;; Data sizes:     COMRAM   BANK5   BANK6   BANK7   BANK8   BANK9  BANK10  BANK11  BANK12  BANK13  BANK14  BANK15  BANK1
      +6  BANK17  BANK18  BANK19  BANK20  BANK21  BANK22  BANK23  BANK24  BANK25  BANK26  BANK27  BANK28  BANK29  BANK30  BANK3
      +1  BANK32  BANK33  BANK34  BANK35  BANK36
  2230 ;;      Params:         4       0       0       0       0       0       0       0       0       0       0       0       
      +0       0       0       0       0       0       0       0       0       0       0       0       0       0       0       
      +0       0       0       0       0       0
  2231 ;;      Locals:         4       0       0       0       0       0       0       0       0       0       0       0       
      +0       0       0       0       0       0       0       0       0       0       0       0       0       0       0       
      +0       0       0       0       0       0
  2232 ;;      Temps:          0       0       0       0       0       0       0       0       0       0       0       0       
      +0       0       0       0       0       0       0       0       0       0       0       0       0       0       0       
      +0       0       0       0       0       0
  2233 ;;      Totals:         8       0       0       0       0       0       0       0       0       0       0       0       
      +0       0       0       0       0       0       0       0       0       0       0       0       0       0       0       
      +0       0       0       0       0       0
  2234 ;;Total ram usage:        8 bytes
  2235 ;; Hardware stack levels used: 1
  2236 ;; Hardware stack levels required when called: 6
  2237 ;; This function calls:
  2238 ;;		Nothing
  2239 ;; This function is called by:
  2240 ;;		___rem_pio2f
  2241 ;; This function uses a non-reentrant model
  2242 ;;
  2243                           
  2244                           	psect	text4
  2245  004422                     __ptext4:
  2246                           	callstack 0
  2247  004422                     _fabsf:
  2248                           	callstack 118
  2249  004422  C5CA  F50A         	movff	fabsf@F465,fabsf@u
  2250  004426  C5CB  F50B         	movff	fabsf@F465+1,fabsf@u+1
  2251  00442A  C5CC  F50C         	movff	fabsf@F465+2,fabsf@u+2
  2252  00442E  C5CD  F50D         	movff	fabsf@F465+3,fabsf@u+3
  2253  004432  C506  F50A         	movff	fabsf@x,fabsf@u
  2254  004436  C507  F50B         	movff	fabsf@x+1,fabsf@u+1
  2255  00443A  C508  F50C         	movff	fabsf@x+2,fabsf@u+2
  2256  00443E  C509  F50D         	movff	fabsf@x+3,fabsf@u+3
  2257  004442  9E0D               	bcf	(fabsf@u+3)^(0+1280),7,c
  2258  004444  C50A  F506         	movff	fabsf@u,?_fabsf
  2259  004448  C50B  F507         	movff	fabsf@u+1,?_fabsf+1
  2260  00444C  C50C  F508         	movff	fabsf@u+2,?_fabsf+2
  2261  004450  C50D  F509         	movff	fabsf@u+3,?_fabsf+3
  2262  004454  0012               	return		;funcret
  2263  004456                     __end_of_fabsf:
  2264                           	callstack 0
  2265                           
  2266 ;; *************** function ___xxtofl *****************
  2267 ;; Defined at:
  2268 ;;		line 10 in file "C:\Program Files\Microchip\xc8\v2.36\pic\sources\c99\common\xxtofl.c"
  2269 ;; Parameters:    Size  Location     Type
  2270 ;;  sign            1    wreg     unsigned char 
  2271 ;;  val             4    5[COMRAM] long 
  2272 ;; Auto vars:     Size  Location     Type
  2273 ;;  sign            1   13[COMRAM] unsigned char 
  2274 ;;  arg             4   15[COMRAM] unsigned long 
  2275 ;;  exp             1   14[COMRAM] unsigned char 
  2276 ;; Return value:  Size  Location     Type
  2277 ;;                  4    5[COMRAM] unsigned char 
  2278 ;; Registers used:
  2279 ;;		wreg, status,2, status,0
  2280 ;; Tracked objects:
  2281 ;;		On entry : 0/0
  2282 ;;		On exit  : 0/0
  2283 ;;		Unchanged: 0/0
  2284 ;; Data sizes:     COMRAM   BANK5   BANK6   BANK7   BANK8   BANK9  BANK10  BANK11  BANK12  BANK13  BANK14  BANK15  BANK1
      +6  BANK17  BANK18  BANK19  BANK20  BANK21  BANK22  BANK23  BANK24  BANK25  BANK26  BANK27  BANK28  BANK29  BANK30  BANK3
      +1  BANK32  BANK33  BANK34  BANK35  BANK36
  2285 ;;      Params:         4       0       0       0       0       0       0       0       0       0       0       0       
      +0       0       0       0       0       0       0       0       0       0       0       0       0       0       0       
      +0       0       0       0       0       0
  2286 ;;      Locals:         6       0       0       0       0       0       0       0       0       0       0       0       
      +0       0       0       0       0       0       0       0       0       0       0       0       0       0       0       
      +0       0       0       0       0       0
  2287 ;;      Temps:          4       0       0       0       0       0       0       0       0       0       0       0       
      +0       0       0       0       0       0       0       0       0       0       0       0       0       0       0       
      +0       0       0       0       0       0
  2288 ;;      Totals:        14       0       0       0       0       0       0       0       0       0       0       0       
      +0       0       0       0       0       0       0       0       0       0       0       0       0       0       0       
      +0       0       0       0       0       0
  2289 ;;Total ram usage:       14 bytes
  2290 ;; Hardware stack levels used: 1
  2291 ;; Hardware stack levels required when called: 6
  2292 ;; This function calls:
  2293 ;;		Nothing
  2294 ;; This function is called by:
  2295 ;;		_main
  2296 ;;		___rem_pio2f
  2297 ;; This function uses a non-reentrant model
  2298 ;;
  2299                           
  2300                           	psect	text5
  2301  003D1C                     __ptext5:
  2302                           	callstack 0
  2303  003D1C                     ___xxtofl:
  2304                           	callstack 118
  2305                           
  2306                           ;incstack = 0
  2307                           ;___xxtofl@sign stored from wreg
  2308  003D1C  6E0E               	movwf	___xxtofl@sign^(0+1280),c
  2309  003D1E  500E               	movf	___xxtofl@sign^(0+1280),w,c
  2310  003D20  B4D8               	btfsc	status,2,c
  2311  003D22  EF95  F01E         	goto	u1751
  2312  003D26  EF97  F01E         	goto	u1750
  2313  003D2A                     u1751:
  2314  003D2A  EFB9  F01E         	goto	l1203
  2315  003D2E                     u1750:
  2316  003D2E  BE09               	btfsc	(___xxtofl@val+3)^(0+1280),7,c
  2317  003D30  EF9E  F01E         	goto	u1760
  2318  003D34  EF9C  F01E         	goto	u1761
  2319  003D38                     u1761:
  2320  003D38  EFB9  F01E         	goto	l1203
  2321  003D3C                     u1760:
  2322  003D3C  C506  F50A         	movff	___xxtofl@val,??___xxtofl
  2323  003D40  C507  F50B         	movff	___xxtofl@val+1,??___xxtofl+1
  2324  003D44  C508  F50C         	movff	___xxtofl@val+2,??___xxtofl+2
  2325  003D48  C509  F50D         	movff	___xxtofl@val+3,??___xxtofl+3
  2326  003D4C  1E0A               	comf	??___xxtofl^(0+1280),f,c
  2327  003D4E  1E0B               	comf	(??___xxtofl+1)^(0+1280),f,c
  2328  003D50  1E0C               	comf	(??___xxtofl+2)^(0+1280),f,c
  2329  003D52  1E0D               	comf	(??___xxtofl+3)^(0+1280),f,c
  2330  003D54  2A0A               	incf	??___xxtofl^(0+1280),f,c
  2331  003D56  0E00               	movlw	0
  2332  003D58  220B               	addwfc	(??___xxtofl+1)^(0+1280),f,c
  2333  003D5A  220C               	addwfc	(??___xxtofl+2)^(0+1280),f,c
  2334  003D5C  220D               	addwfc	(??___xxtofl+3)^(0+1280),f,c
  2335  003D5E  C50A  F510         	movff	??___xxtofl,___xxtofl@arg
  2336  003D62  C50B  F511         	movff	??___xxtofl+1,___xxtofl@arg+1
  2337  003D66  C50C  F512         	movff	??___xxtofl+2,___xxtofl@arg+2
  2338  003D6A  C50D  F513         	movff	??___xxtofl+3,___xxtofl@arg+3
  2339  003D6E  EFC1  F01E         	goto	l2755
  2340  003D72                     l1203:
  2341  003D72  C506  F510         	movff	___xxtofl@val,___xxtofl@arg
  2342  003D76  C507  F511         	movff	___xxtofl@val+1,___xxtofl@arg+1
  2343  003D7A  C508  F512         	movff	___xxtofl@val+2,___xxtofl@arg+2
  2344  003D7E  C509  F513         	movff	___xxtofl@val+3,___xxtofl@arg+3
  2345  003D82                     l2755:
  2346  003D82  5006               	movf	___xxtofl@val^(0+1280),w,c
  2347  003D84  1007               	iorwf	(___xxtofl@val+1)^(0+1280),w,c
  2348  003D86  1008               	iorwf	(___xxtofl@val+2)^(0+1280),w,c
  2349  003D88  1009               	iorwf	(___xxtofl@val+3)^(0+1280),w,c
  2350  003D8A  A4D8               	btfss	status,2,c
  2351  003D8C  EFCA  F01E         	goto	u1771
  2352  003D90  EFCC  F01E         	goto	u1770
  2353  003D94                     u1771:
  2354  003D94  EFD6  F01E         	goto	l2761
  2355  003D98                     u1770:
  2356  003D98  0E00               	movlw	0
  2357  003D9A  6E06               	movwf	?___xxtofl^(0+1280),c
  2358  003D9C  0E00               	movlw	0
  2359  003D9E  6E07               	movwf	(?___xxtofl+1)^(0+1280),c
  2360  003DA0  0E00               	movlw	0
  2361  003DA2  6E08               	movwf	(?___xxtofl+2)^(0+1280),c
  2362  003DA4  0E00               	movlw	0
  2363  003DA6  6E09               	movwf	(?___xxtofl+3)^(0+1280),c
  2364  003DA8  EF67  F01F         	goto	l1206
  2365  003DAC                     l2761:
  2366  003DAC  0E96               	movlw	150
  2367  003DAE  6E0F               	movwf	___xxtofl@exp^(0+1280),c
  2368  003DB0  EFE0  F01E         	goto	l2765
  2369  003DB4                     l2763:
  2370  003DB4  2A0F               	incf	___xxtofl@exp^(0+1280),f,c
  2371  003DB6  90D8               	bcf	status,0,c
  2372  003DB8  3213               	rrcf	(___xxtofl@arg+3)^(0+1280),f,c
  2373  003DBA  3212               	rrcf	(___xxtofl@arg+2)^(0+1280),f,c
  2374  003DBC  3211               	rrcf	(___xxtofl@arg+1)^(0+1280),f,c
  2375  003DBE  3210               	rrcf	___xxtofl@arg^(0+1280),f,c
  2376  003DC0                     l2765:
  2377  003DC0  0E00               	movlw	0
  2378  003DC2  1410               	andwf	___xxtofl@arg^(0+1280),w,c
  2379  003DC4  6E0A               	movwf	??___xxtofl^(0+1280),c
  2380  003DC6  0E00               	movlw	0
  2381  003DC8  1411               	andwf	(___xxtofl@arg+1)^(0+1280),w,c
  2382  003DCA  6E0B               	movwf	(??___xxtofl+1)^(0+1280),c
  2383  003DCC  0E00               	movlw	0
  2384  003DCE  1412               	andwf	(___xxtofl@arg+2)^(0+1280),w,c
  2385  003DD0  6E0C               	movwf	(??___xxtofl+2)^(0+1280),c
  2386  003DD2  0EFE               	movlw	254
  2387  003DD4  1413               	andwf	(___xxtofl@arg+3)^(0+1280),w,c
  2388  003DD6  6E0D               	movwf	(??___xxtofl+3)^(0+1280),c
  2389  003DD8  500A               	movf	??___xxtofl^(0+1280),w,c
  2390  003DDA  100B               	iorwf	(??___xxtofl+1)^(0+1280),w,c
  2391  003DDC  100C               	iorwf	(??___xxtofl+2)^(0+1280),w,c
  2392  003DDE  100D               	iorwf	(??___xxtofl+3)^(0+1280),w,c
  2393  003DE0  A4D8               	btfss	status,2,c
  2394  003DE2  EFF5  F01E         	goto	u1781
  2395  003DE6  EFF7  F01E         	goto	u1780
  2396  003DEA                     u1781:
  2397  003DEA  EFDA  F01E         	goto	l2763
  2398  003DEE                     u1780:
  2399  003DEE  EF05  F01F         	goto	l1210
  2400  003DF2                     l2767:
  2401  003DF2  2A0F               	incf	___xxtofl@exp^(0+1280),f,c
  2402  003DF4  0E01               	movlw	1
  2403  003DF6  2610               	addwf	___xxtofl@arg^(0+1280),f,c
  2404  003DF8  0E00               	movlw	0
  2405  003DFA  2211               	addwfc	(___xxtofl@arg+1)^(0+1280),f,c
  2406  003DFC  2212               	addwfc	(___xxtofl@arg+2)^(0+1280),f,c
  2407  003DFE  2213               	addwfc	(___xxtofl@arg+3)^(0+1280),f,c
  2408  003E00  90D8               	bcf	status,0,c
  2409  003E02  3213               	rrcf	(___xxtofl@arg+3)^(0+1280),f,c
  2410  003E04  3212               	rrcf	(___xxtofl@arg+2)^(0+1280),f,c
  2411  003E06  3211               	rrcf	(___xxtofl@arg+1)^(0+1280),f,c
  2412  003E08  3210               	rrcf	___xxtofl@arg^(0+1280),f,c
  2413  003E0A                     l1210:
  2414  003E0A  0E00               	movlw	0
  2415  003E0C  1410               	andwf	___xxtofl@arg^(0+1280),w,c
  2416  003E0E  6E0A               	movwf	??___xxtofl^(0+1280),c
  2417  003E10  0E00               	movlw	0
  2418  003E12  1411               	andwf	(___xxtofl@arg+1)^(0+1280),w,c
  2419  003E14  6E0B               	movwf	(??___xxtofl+1)^(0+1280),c
  2420  003E16  0E00               	movlw	0
  2421  003E18  1412               	andwf	(___xxtofl@arg+2)^(0+1280),w,c
  2422  003E1A  6E0C               	movwf	(??___xxtofl+2)^(0+1280),c
  2423  003E1C  0EFF               	movlw	255
  2424  003E1E  1413               	andwf	(___xxtofl@arg+3)^(0+1280),w,c
  2425  003E20  6E0D               	movwf	(??___xxtofl+3)^(0+1280),c
  2426  003E22  500A               	movf	??___xxtofl^(0+1280),w,c
  2427  003E24  100B               	iorwf	(??___xxtofl+1)^(0+1280),w,c
  2428  003E26  100C               	iorwf	(??___xxtofl+2)^(0+1280),w,c
  2429  003E28  100D               	iorwf	(??___xxtofl+3)^(0+1280),w,c
  2430  003E2A  A4D8               	btfss	status,2,c
  2431  003E2C  EF1A  F01F         	goto	u1791
  2432  003E30  EF1C  F01F         	goto	u1790
  2433  003E34                     u1791:
  2434  003E34  EFF9  F01E         	goto	l2767
  2435  003E38                     u1790:
  2436  003E38  EF24  F01F         	goto	l2775
  2437  003E3C                     l2773:
  2438  003E3C  060F               	decf	___xxtofl@exp^(0+1280),f,c
  2439  003E3E  90D8               	bcf	status,0,c
  2440  003E40  3610               	rlcf	___xxtofl@arg^(0+1280),f,c
  2441  003E42  3611               	rlcf	(___xxtofl@arg+1)^(0+1280),f,c
  2442  003E44  3612               	rlcf	(___xxtofl@arg+2)^(0+1280),f,c
  2443  003E46  3613               	rlcf	(___xxtofl@arg+3)^(0+1280),f,c
  2444  003E48                     l2775:
  2445  003E48  BE12               	btfsc	(___xxtofl@arg+2)^(0+1280),7,c
  2446  003E4A  EF29  F01F         	goto	u1801
  2447  003E4E  EF2B  F01F         	goto	u1800
  2448  003E52                     u1801:
  2449  003E52  EF33  F01F         	goto	l1217
  2450  003E56                     u1800:
  2451  003E56  0E02               	movlw	2
  2452  003E58  600F               	cpfslt	___xxtofl@exp^(0+1280),c
  2453  003E5A  EF31  F01F         	goto	u1811
  2454  003E5E  EF33  F01F         	goto	u1810
  2455  003E62                     u1811:
  2456  003E62  EF1E  F01F         	goto	l2773
  2457  003E66                     u1810:
  2458  003E66                     l1217:
  2459  003E66  B00F               	btfsc	___xxtofl@exp^(0+1280),0,c
  2460  003E68  EF38  F01F         	goto	u1821
  2461  003E6C  EF3A  F01F         	goto	u1820
  2462  003E70                     u1821:
  2463  003E70  EF3B  F01F         	goto	l2781
  2464  003E74                     u1820:
  2465  003E74  9E12               	bcf	(___xxtofl@arg+2)^(0+1280),7,c
  2466  003E76                     l2781:
  2467  003E76  90D8               	bcf	status,0,c
  2468  003E78  320F               	rrcf	___xxtofl@exp^(0+1280),f,c
  2469  003E7A  C50F  F50A         	movff	___xxtofl@exp,??___xxtofl
  2470  003E7E  6A0B               	clrf	(??___xxtofl+1)^(0+1280),c
  2471  003E80  6A0C               	clrf	(??___xxtofl+2)^(0+1280),c
  2472  003E82  6A0D               	clrf	(??___xxtofl+3)^(0+1280),c
  2473  003E84  C50A  F50D         	movff	??___xxtofl,??___xxtofl+3
  2474  003E88  6A0C               	clrf	(??___xxtofl+2)^(0+1280),c
  2475  003E8A  6A0B               	clrf	(??___xxtofl+1)^(0+1280),c
  2476  003E8C  6A0A               	clrf	??___xxtofl^(0+1280),c
  2477  003E8E  500A               	movf	??___xxtofl^(0+1280),w,c
  2478  003E90  1210               	iorwf	___xxtofl@arg^(0+1280),f,c
  2479  003E92  500B               	movf	(??___xxtofl+1)^(0+1280),w,c
  2480  003E94  1211               	iorwf	(___xxtofl@arg+1)^(0+1280),f,c
  2481  003E96  500C               	movf	(??___xxtofl+2)^(0+1280),w,c
  2482  003E98  1212               	iorwf	(___xxtofl@arg+2)^(0+1280),f,c
  2483  003E9A  500D               	movf	(??___xxtofl+3)^(0+1280),w,c
  2484  003E9C  1213               	iorwf	(___xxtofl@arg+3)^(0+1280),f,c
  2485  003E9E  500E               	movf	___xxtofl@sign^(0+1280),w,c
  2486  003EA0  B4D8               	btfsc	status,2,c
  2487  003EA2  EF55  F01F         	goto	u1831
  2488  003EA6  EF57  F01F         	goto	u1830
  2489  003EAA                     u1831:
  2490  003EAA  EF5F  F01F         	goto	l2791
  2491  003EAE                     u1830:
  2492  003EAE  BE09               	btfsc	(___xxtofl@val+3)^(0+1280),7,c
  2493  003EB0  EF5E  F01F         	goto	u1840
  2494  003EB4  EF5C  F01F         	goto	u1841
  2495  003EB8                     u1841:
  2496  003EB8  EF5F  F01F         	goto	l2791
  2497  003EBC                     u1840:
  2498  003EBC  8E13               	bsf	(___xxtofl@arg+3)^(0+1280),7,c
  2499  003EBE                     l2791:
  2500  003EBE  C510  F506         	movff	___xxtofl@arg,?___xxtofl
  2501  003EC2  C511  F507         	movff	___xxtofl@arg+1,?___xxtofl+1
  2502  003EC6  C512  F508         	movff	___xxtofl@arg+2,?___xxtofl+2
  2503  003ECA  C513  F509         	movff	___xxtofl@arg+3,?___xxtofl+3
  2504  003ECE                     l1206:
  2505  003ECE  0012               	return		;funcret
  2506  003ED0                     __end_of___xxtofl:
  2507                           	callstack 0
  2508                           
  2509 ;; *************** function ___fltol *****************
  2510 ;; Defined at:
  2511 ;;		line 43 in file "C:\Program Files\Microchip\xc8\v2.36\pic\sources\c99\common\fltol.c"
  2512 ;; Parameters:    Size  Location     Type
  2513 ;;  f1              4   60[COMRAM] unsigned char 
  2514 ;; Auto vars:     Size  Location     Type
  2515 ;;  exp1            1   69[COMRAM] unsigned char 
  2516 ;;  sign1           1   68[COMRAM] unsigned char 
  2517 ;; Return value:  Size  Location     Type
  2518 ;;                  4   60[COMRAM] long 
  2519 ;; Registers used:
  2520 ;;		wreg, status,2, status,0
  2521 ;; Tracked objects:
  2522 ;;		On entry : 0/0
  2523 ;;		On exit  : 0/0
  2524 ;;		Unchanged: 0/0
  2525 ;; Data sizes:     COMRAM   BANK5   BANK6   BANK7   BANK8   BANK9  BANK10  BANK11  BANK12  BANK13  BANK14  BANK15  BANK1
      +6  BANK17  BANK18  BANK19  BANK20  BANK21  BANK22  BANK23  BANK24  BANK25  BANK26  BANK27  BANK28  BANK29  BANK30  BANK3
      +1  BANK32  BANK33  BANK34  BANK35  BANK36
  2526 ;;      Params:         4       0       0       0       0       0       0       0       0       0       0       0       
      +0       0       0       0       0       0       0       0       0       0       0       0       0       0       0       
      +0       0       0       0       0       0
  2527 ;;      Locals:         2       0       0       0       0       0       0       0       0       0       0       0       
      +0       0       0       0       0       0       0       0       0       0       0       0       0       0       0       
      +0       0       0       0       0       0
  2528 ;;      Temps:          4       0       0       0       0       0       0       0       0       0       0       0       
      +0       0       0       0       0       0       0       0       0       0       0       0       0       0       0       
      +0       0       0       0       0       0
  2529 ;;      Totals:        10       0       0       0       0       0       0       0       0       0       0       0       
      +0       0       0       0       0       0       0       0       0       0       0       0       0       0       0       
      +0       0       0       0       0       0
  2530 ;;Total ram usage:       10 bytes
  2531 ;; Hardware stack levels used: 1
  2532 ;; Hardware stack levels required when called: 6
  2533 ;; This function calls:
  2534 ;;		Nothing
  2535 ;; This function is called by:
  2536 ;;		_main
  2537 ;;		___rem_pio2f
  2538 ;; This function uses a non-reentrant model
  2539 ;;
  2540                           
  2541                           	psect	text6
  2542  003FFA                     __ptext6:
  2543                           	callstack 0
  2544  003FFA                     ___fltol:
  2545                           	callstack 118
  2546  003FFA  343F               	rlcf	(___fltol@f1+2)^(0+1280),w,c
  2547  003FFC  3440               	rlcf	(___fltol@f1+3)^(0+1280),w,c
  2548  003FFE  6E46               	movwf	___fltol@exp1^(0+1280),c
  2549  004000  5046               	movf	___fltol@exp1^(0+1280),w,c
  2550  004002  A4D8               	btfss	status,2,c
  2551  004004  EF06  F020         	goto	u1681
  2552  004008  EF08  F020         	goto	u1680
  2553  00400C                     u1681:
  2554  00400C  EF12  F020         	goto	l2711
  2555  004010                     u1680:
  2556  004010                     l2707:
  2557  004010  0E00               	movlw	0
  2558  004012  6E3D               	movwf	?___fltol^(0+1280),c
  2559  004014  0E00               	movlw	0
  2560  004016  6E3E               	movwf	(?___fltol+1)^(0+1280),c
  2561  004018  0E00               	movlw	0
  2562  00401A  6E3F               	movwf	(?___fltol+2)^(0+1280),c
  2563  00401C  0E00               	movlw	0
  2564  00401E  6E40               	movwf	(?___fltol+3)^(0+1280),c
  2565  004020  EF7F  F020         	goto	l845
  2566  004024                     l2711:
  2567  004024  C53D  F541         	movff	___fltol@f1,??___fltol
  2568  004028  C53E  F542         	movff	___fltol@f1+1,??___fltol+1
  2569  00402C  C53F  F543         	movff	___fltol@f1+2,??___fltol+2
  2570  004030  C540  F544         	movff	___fltol@f1+3,??___fltol+3
  2571  004034  0E20               	movlw	32
  2572  004036  EF22  F020         	goto	u1690
  2573  00403A                     u1695:
  2574  00403A  90D8               	bcf	status,0,c
  2575  00403C  3244               	rrcf	(??___fltol+3)^(0+1280),f,c
  2576  00403E  3243               	rrcf	(??___fltol+2)^(0+1280),f,c
  2577  004040  3242               	rrcf	(??___fltol+1)^(0+1280),f,c
  2578  004042  3241               	rrcf	??___fltol^(0+1280),f,c
  2579  004044                     u1690:
  2580  004044  2EE8               	decfsz	wreg,f,c
  2581  004046  EF1D  F020         	goto	u1695
  2582  00404A  5041               	movf	??___fltol^(0+1280),w,c
  2583  00404C  6E45               	movwf	___fltol@sign1^(0+1280),c
  2584  00404E  8E3F               	bsf	(___fltol@f1+2)^(0+1280),7,c
  2585  004050  0EFF               	movlw	255
  2586  004052  163D               	andwf	___fltol@f1^(0+1280),f,c
  2587  004054  0EFF               	movlw	255
  2588  004056  163E               	andwf	(___fltol@f1+1)^(0+1280),f,c
  2589  004058  0EFF               	movlw	255
  2590  00405A  163F               	andwf	(___fltol@f1+2)^(0+1280),f,c
  2591  00405C  0E00               	movlw	0
  2592  00405E  1640               	andwf	(___fltol@f1+3)^(0+1280),f,c
  2593  004060  0E96               	movlw	150
  2594  004062  5E46               	subwf	___fltol@exp1^(0+1280),f,c
  2595  004064  BE46               	btfsc	___fltol@exp1^(0+1280),7,c
  2596  004066  EF39  F020         	goto	u1700
  2597  00406A  EF37  F020         	goto	u1701
  2598  00406E                     u1701:
  2599  00406E  EF4F  F020         	goto	l2731
  2600  004072                     u1700:
  2601  004072  5046               	movf	___fltol@exp1^(0+1280),w,c
  2602  004074  0A80               	xorlw	128
  2603  004076  0F97               	addlw	151
  2604  004078  B0D8               	btfsc	status,0,c
  2605  00407A  EF41  F020         	goto	u1711
  2606  00407E  EF43  F020         	goto	u1710
  2607  004082                     u1711:
  2608  004082  EF45  F020         	goto	l2727
  2609  004086                     u1710:
  2610  004086  EF08  F020         	goto	l2707
  2611  00408A                     l2727:
  2612  00408A  90D8               	bcf	status,0,c
  2613  00408C  3240               	rrcf	(___fltol@f1+3)^(0+1280),f,c
  2614  00408E  323F               	rrcf	(___fltol@f1+2)^(0+1280),f,c
  2615  004090  323E               	rrcf	(___fltol@f1+1)^(0+1280),f,c
  2616  004092  323D               	rrcf	___fltol@f1^(0+1280),f,c
  2617  004094  3E46               	incfsz	___fltol@exp1^(0+1280),f,c
  2618  004096  EF45  F020         	goto	l2727
  2619  00409A  EF67  F020         	goto	l2741
  2620  00409E                     l2731:
  2621  00409E  0E1F               	movlw	31
  2622  0040A0  6446               	cpfsgt	___fltol@exp1^(0+1280),c
  2623  0040A2  EF55  F020         	goto	u1721
  2624  0040A6  EF57  F020         	goto	u1720
  2625  0040AA                     u1721:
  2626  0040AA  EF5F  F020         	goto	l2739
  2627  0040AE                     u1720:
  2628  0040AE  EF08  F020         	goto	l2707
  2629  0040B2                     l2737:
  2630  0040B2  90D8               	bcf	status,0,c
  2631  0040B4  363D               	rlcf	___fltol@f1^(0+1280),f,c
  2632  0040B6  363E               	rlcf	(___fltol@f1+1)^(0+1280),f,c
  2633  0040B8  363F               	rlcf	(___fltol@f1+2)^(0+1280),f,c
  2634  0040BA  3640               	rlcf	(___fltol@f1+3)^(0+1280),f,c
  2635  0040BC  0646               	decf	___fltol@exp1^(0+1280),f,c
  2636  0040BE                     l2739:
  2637  0040BE  5046               	movf	___fltol@exp1^(0+1280),w,c
  2638  0040C0  A4D8               	btfss	status,2,c
  2639  0040C2  EF65  F020         	goto	u1731
  2640  0040C6  EF67  F020         	goto	u1730
  2641  0040CA                     u1731:
  2642  0040CA  EF59  F020         	goto	l2737
  2643  0040CE                     u1730:
  2644  0040CE                     l2741:
  2645  0040CE  5045               	movf	___fltol@sign1^(0+1280),w,c
  2646  0040D0  B4D8               	btfsc	status,2,c
  2647  0040D2  EF6D  F020         	goto	u1741
  2648  0040D6  EF6F  F020         	goto	u1740
  2649  0040DA                     u1741:
  2650  0040DA  EF77  F020         	goto	l2745
  2651  0040DE                     u1740:
  2652  0040DE  1E40               	comf	(___fltol@f1+3)^(0+1280),f,c
  2653  0040E0  1E3F               	comf	(___fltol@f1+2)^(0+1280),f,c
  2654  0040E2  1E3E               	comf	(___fltol@f1+1)^(0+1280),f,c
  2655  0040E4  6C3D               	negf	___fltol@f1^(0+1280),c
  2656  0040E6  0E00               	movlw	0
  2657  0040E8  223E               	addwfc	(___fltol@f1+1)^(0+1280),f,c
  2658  0040EA  223F               	addwfc	(___fltol@f1+2)^(0+1280),f,c
  2659  0040EC  2240               	addwfc	(___fltol@f1+3)^(0+1280),f,c
  2660  0040EE                     l2745:
  2661  0040EE  C53D  F53D         	movff	___fltol@f1,?___fltol
  2662  0040F2  C53E  F53E         	movff	___fltol@f1+1,?___fltol+1
  2663  0040F6  C53F  F53F         	movff	___fltol@f1+2,?___fltol+2
  2664  0040FA  C540  F540         	movff	___fltol@f1+3,?___fltol+3
  2665  0040FE                     l845:
  2666  0040FE  0012               	return		;funcret
  2667  004100                     __end_of___fltol:
  2668                           	callstack 0
  2669                           
  2670 ;; *************** function ___flsub *****************
  2671 ;; Defined at:
  2672 ;;		line 245 in file "C:\Program Files\Microchip\xc8\v2.36\pic\sources\c99\common\sprcadd.c"
  2673 ;; Parameters:    Size  Location     Type
  2674 ;;  b               4   60[COMRAM] long 
  2675 ;;  a               4   64[COMRAM] long 
  2676 ;; Auto vars:     Size  Location     Type
  2677 ;;		None
  2678 ;; Return value:  Size  Location     Type
  2679 ;;                  4   60[COMRAM] long 
  2680 ;; Registers used:
  2681 ;;		wreg, status,2, status,0, cstack
  2682 ;; Tracked objects:
  2683 ;;		On entry : 0/0
  2684 ;;		On exit  : 0/0
  2685 ;;		Unchanged: 0/0
  2686 ;; Data sizes:     COMRAM   BANK5   BANK6   BANK7   BANK8   BANK9  BANK10  BANK11  BANK12  BANK13  BANK14  BANK15  BANK1
      +6  BANK17  BANK18  BANK19  BANK20  BANK21  BANK22  BANK23  BANK24  BANK25  BANK26  BANK27  BANK28  BANK29  BANK30  BANK3
      +1  BANK32  BANK33  BANK34  BANK35  BANK36
  2687 ;;      Params:         8       0       0       0       0       0       0       0       0       0       0       0       
      +0       0       0       0       0       0       0       0       0       0       0       0       0       0       0       
      +0       0       0       0       0       0
  2688 ;;      Locals:         0       0       0       0       0       0       0       0       0       0       0       0       
      +0       0       0       0       0       0       0       0       0       0       0       0       0       0       0       
      +0       0       0       0       0       0
  2689 ;;      Temps:          0       0       0       0       0       0       0       0       0       0       0       0       
      +0       0       0       0       0       0       0       0       0       0       0       0       0       0       0       
      +0       0       0       0       0       0
  2690 ;;      Totals:         8       0       0       0       0       0       0       0       0       0       0       0       
      +0       0       0       0       0       0       0       0       0       0       0       0       0       0       0       
      +0       0       0       0       0       0
  2691 ;;Total ram usage:        8 bytes
  2692 ;; Hardware stack levels used: 1
  2693 ;; Hardware stack levels required when called: 7
  2694 ;; This function calls:
  2695 ;;		___fladd
  2696 ;; This function is called by:
  2697 ;;		_sinf
  2698 ;;		___rem_pio2f
  2699 ;; This function uses a non-reentrant model
  2700 ;;
  2701                           
  2702                           	psect	text7
  2703  0042E8                     __ptext7:
  2704                           	callstack 0
  2705  0042E8                     ___flsub:
  2706                           	callstack 117
  2707  0042E8  0E00               	movlw	0
  2708  0042EA  1A41               	xorwf	___flsub@a^(0+1280),f,c
  2709  0042EC  0E00               	movlw	0
  2710  0042EE  1A42               	xorwf	(___flsub@a+1)^(0+1280),f,c
  2711  0042F0  0E00               	movlw	0
  2712  0042F2  1A43               	xorwf	(___flsub@a+2)^(0+1280),f,c
  2713  0042F4  0E80               	movlw	128
  2714  0042F6  1A44               	xorwf	(___flsub@a+3)^(0+1280),f,c
  2715  0042F8  C53D  F52D         	movff	___flsub@b,___fladd@b
  2716  0042FC  C53E  F52E         	movff	___flsub@b+1,___fladd@b+1
  2717  004300  C53F  F52F         	movff	___flsub@b+2,___fladd@b+2
  2718  004304  C540  F530         	movff	___flsub@b+3,___fladd@b+3
  2719  004308  C541  F531         	movff	___flsub@a,___fladd@a
  2720  00430C  C542  F532         	movff	___flsub@a+1,___fladd@a+1
  2721  004310  C543  F533         	movff	___flsub@a+2,___fladd@a+2
  2722  004314  C544  F534         	movff	___flsub@a+3,___fladd@a+3
  2723  004318  ECEF  F017         	call	___fladd	;wreg free
  2724  00431C  C52D  F53D         	movff	?___fladd,?___flsub
  2725  004320  C52E  F53E         	movff	?___fladd+1,?___flsub+1
  2726  004324  C52F  F53F         	movff	?___fladd+2,?___flsub+2
  2727  004328  C530  F540         	movff	?___fladd+3,?___flsub+3
  2728  00432C  0012               	return		;funcret
  2729  00432E                     __end_of___flsub:
  2730                           	callstack 0
  2731                           
  2732 ;; *************** function ___flneg *****************
  2733 ;; Defined at:
  2734 ;;		line 15 in file "C:\Program Files\Microchip\xc8\v2.36\pic\sources\c99\common\flneg.c"
  2735 ;; Parameters:    Size  Location     Type
  2736 ;;  f1              4   24[BANK5 ] long 
  2737 ;; Auto vars:     Size  Location     Type
  2738 ;;		None
  2739 ;; Return value:  Size  Location     Type
  2740 ;;                  4   24[BANK5 ] long 
  2741 ;; Registers used:
  2742 ;;		wreg, status,2, status,0
  2743 ;; Tracked objects:
  2744 ;;		On entry : 0/0
  2745 ;;		On exit  : 0/0
  2746 ;;		Unchanged: 0/0
  2747 ;; Data sizes:     COMRAM   BANK5   BANK6   BANK7   BANK8   BANK9  BANK10  BANK11  BANK12  BANK13  BANK14  BANK15  BANK1
      +6  BANK17  BANK18  BANK19  BANK20  BANK21  BANK22  BANK23  BANK24  BANK25  BANK26  BANK27  BANK28  BANK29  BANK30  BANK3
      +1  BANK32  BANK33  BANK34  BANK35  BANK36
  2748 ;;      Params:         0       4       0       0       0       0       0       0       0       0       0       0       
      +0       0       0       0       0       0       0       0       0       0       0       0       0       0       0       
      +0       0       0       0       0       0
  2749 ;;      Locals:         0       0       0       0       0       0       0       0       0       0       0       0       
      +0       0       0       0       0       0       0       0       0       0       0       0       0       0       0       
      +0       0       0       0       0       0
  2750 ;;      Temps:          0       0       0       0       0       0       0       0       0       0       0       0       
      +0       0       0       0       0       0       0       0       0       0       0       0       0       0       0       
      +0       0       0       0       0       0
  2751 ;;      Totals:         0       4       0       0       0       0       0       0       0       0       0       0       
      +0       0       0       0       0       0       0       0       0       0       0       0       0       0       0       
      +0       0       0       0       0       0
  2752 ;;Total ram usage:        4 bytes
  2753 ;; Hardware stack levels used: 1
  2754 ;; Hardware stack levels required when called: 6
  2755 ;; This function calls:
  2756 ;;		Nothing
  2757 ;; This function is called by:
  2758 ;;		_sinf
  2759 ;;		___rem_pio2f
  2760 ;; This function uses a non-reentrant model
  2761 ;;
  2762                           
  2763                           	psect	text8
  2764  0043AE                     __ptext8:
  2765                           	callstack 0
  2766  0043AE                     ___flneg:
  2767                           	callstack 118
  2768  0043AE  0105               	movlb	5	; () banked
  2769  0043B0  5178               	movf	___flneg@f1& (0+255),w,b
  2770  0043B2  1179               	iorwf	(___flneg@f1+1)& (0+255),w,b
  2771  0043B4  117A               	iorwf	(___flneg@f1+2)& (0+255),w,b
  2772  0043B6  117B               	iorwf	(___flneg@f1+3)& (0+255),w,b
  2773  0043B8  B4D8               	btfsc	status,2,c
  2774  0043BA  EFE1  F021         	goto	u1671
  2775  0043BE  EFE3  F021         	goto	u1670
  2776  0043C2                     u1671:
  2777  0043C2  EFEB  F021         	goto	l2701
  2778  0043C6                     u1670:
  2779  0043C6                     
  2780                           ; BSR set to: 5
  2781  0043C6  0E00               	movlw	0
  2782  0043C8  1B78               	xorwf	___flneg@f1& (0+255),f,b
  2783  0043CA  0E00               	movlw	0
  2784  0043CC  1B79               	xorwf	(___flneg@f1+1)& (0+255),f,b
  2785  0043CE  0E00               	movlw	0
  2786  0043D0  1B7A               	xorwf	(___flneg@f1+2)& (0+255),f,b
  2787  0043D2  0E80               	movlw	128
  2788  0043D4  1B7B               	xorwf	(___flneg@f1+3)& (0+255),f,b
  2789  0043D6                     l2701:
  2790                           
  2791                           ; BSR set to: 5
  2792  0043D6  C578  F578         	movff	___flneg@f1,?___flneg
  2793  0043DA  C579  F579         	movff	___flneg@f1+1,?___flneg+1
  2794  0043DE  C57A  F57A         	movff	___flneg@f1+2,?___flneg+2
  2795  0043E2  C57B  F57B         	movff	___flneg@f1+3,?___flneg+3
  2796  0043E6                     
  2797                           ; BSR set to: 5
  2798  0043E6  0012               	return		;funcret
  2799  0043E8                     __end_of___flneg:
  2800                           	callstack 0
  2801                           
  2802 ;; *************** function ___cosdf *****************
  2803 ;; Defined at:
  2804 ;;		line 26 in file "C:\Program Files\Microchip\xc8\v2.36\pic\sources\c99\common\__cosdf.c"
  2805 ;; Parameters:    Size  Location     Type
  2806 ;;  x               4   60[COMRAM] long 
  2807 ;; Auto vars:     Size  Location     Type
  2808 ;;  z               4   20[BANK5 ] long 
  2809 ;;  w               4   16[BANK5 ] long 
  2810 ;;  r               4    0[BANK5 ] long 
  2811 ;; Return value:  Size  Location     Type
  2812 ;;                  4   60[COMRAM] float 
  2813 ;; Registers used:
  2814 ;;		wreg, status,2, status,0, prodl, prodh, cstack
  2815 ;; Tracked objects:
  2816 ;;		On entry : 0/0
  2817 ;;		On exit  : 0/0
  2818 ;;		Unchanged: 0/0
  2819 ;; Data sizes:     COMRAM   BANK5   BANK6   BANK7   BANK8   BANK9  BANK10  BANK11  BANK12  BANK13  BANK14  BANK15  BANK1
      +6  BANK17  BANK18  BANK19  BANK20  BANK21  BANK22  BANK23  BANK24  BANK25  BANK26  BANK27  BANK28  BANK29  BANK30  BANK3
      +1  BANK32  BANK33  BANK34  BANK35  BANK36
  2820 ;;      Params:         4       0       0       0       0       0       0       0       0       0       0       0       
      +0       0       0       0       0       0       0       0       0       0       0       0       0       0       0       
      +0       0       0       0       0       0
  2821 ;;      Locals:         0      24       0       0       0       0       0       0       0       0       0       0       
      +0       0       0       0       0       0       0       0       0       0       0       0       0       0       0       
      +0       0       0       0       0       0
  2822 ;;      Temps:          0       0       0       0       0       0       0       0       0       0       0       0       
      +0       0       0       0       0       0       0       0       0       0       0       0       0       0       0       
      +0       0       0       0       0       0
  2823 ;;      Totals:         4      24       0       0       0       0       0       0       0       0       0       0       
      +0       0       0       0       0       0       0       0       0       0       0       0       0       0       0       
      +0       0       0       0       0       0
  2824 ;;Total ram usage:       28 bytes
  2825 ;; Hardware stack levels used: 1
  2826 ;; Hardware stack levels required when called: 7
  2827 ;; This function calls:
  2828 ;;		___fladd
  2829 ;;		___flmul
  2830 ;; This function is called by:
  2831 ;;		_sinf
  2832 ;; This function uses a non-reentrant model
  2833 ;;
  2834                           
  2835                           	psect	text9
  2836  003B1E                     __ptext9:
  2837                           	callstack 0
  2838  003B1E                     ___cosdf:
  2839                           	callstack 118
  2840  003B1E  C53D  F514         	movff	___cosdf@x,___flmul@b
  2841  003B22  C53E  F515         	movff	___cosdf@x+1,___flmul@b+1
  2842  003B26  C53F  F516         	movff	___cosdf@x+2,___flmul@b+2
  2843  003B2A  C540  F517         	movff	___cosdf@x+3,___flmul@b+3
  2844  003B2E  C53D  F518         	movff	___cosdf@x,___flmul@a
  2845  003B32  C53E  F519         	movff	___cosdf@x+1,___flmul@a+1
  2846  003B36  C53F  F51A         	movff	___cosdf@x+2,___flmul@a+2
  2847  003B3A  C540  F51B         	movff	___cosdf@x+3,___flmul@a+3
  2848  003B3E  EC4F  F01A         	call	___flmul	;wreg free
  2849  003B42  C514  F574         	movff	?___flmul,___cosdf@z
  2850  003B46  C515  F575         	movff	?___flmul+1,___cosdf@z+1
  2851  003B4A  C516  F576         	movff	?___flmul+2,___cosdf@z+2
  2852  003B4E  C517  F577         	movff	?___flmul+3,___cosdf@z+3
  2853  003B52  C574  F514         	movff	___cosdf@z,___flmul@b
  2854  003B56  C575  F515         	movff	___cosdf@z+1,___flmul@b+1
  2855  003B5A  C576  F516         	movff	___cosdf@z+2,___flmul@b+2
  2856  003B5E  C577  F517         	movff	___cosdf@z+3,___flmul@b+3
  2857  003B62  C574  F518         	movff	___cosdf@z,___flmul@a
  2858  003B66  C575  F519         	movff	___cosdf@z+1,___flmul@a+1
  2859  003B6A  C576  F51A         	movff	___cosdf@z+2,___flmul@a+2
  2860  003B6E  C577  F51B         	movff	___cosdf@z+3,___flmul@a+3
  2861  003B72  EC4F  F01A         	call	___flmul	;wreg free
  2862  003B76  C514  F570         	movff	?___flmul,___cosdf@w
  2863  003B7A  C515  F571         	movff	?___flmul+1,___cosdf@w+1
  2864  003B7E  C516  F572         	movff	?___flmul+2,___cosdf@w+2
  2865  003B82  C517  F573         	movff	?___flmul+3,___cosdf@w+3
  2866  003B86  0E17               	movlw	23
  2867  003B88  6E18               	movwf	___flmul@a^(0+1280),c
  2868  003B8A  0E9A               	movlw	154
  2869  003B8C  6E19               	movwf	(___flmul@a+1)^(0+1280),c
  2870  003B8E  0ECC               	movlw	204
  2871  003B90  6E1A               	movwf	(___flmul@a+2)^(0+1280),c
  2872  003B92  0E37               	movlw	55
  2873  003B94  6E1B               	movwf	(___flmul@a+3)^(0+1280),c
  2874  003B96  C574  F514         	movff	___cosdf@z,___flmul@b
  2875  003B9A  C575  F515         	movff	___cosdf@z+1,___flmul@b+1
  2876  003B9E  C576  F516         	movff	___cosdf@z+2,___flmul@b+2
  2877  003BA2  C577  F517         	movff	___cosdf@z+3,___flmul@b+3
  2878  003BA6  EC4F  F01A         	call	___flmul	;wreg free
  2879  003BAA  C514  F52D         	movff	?___flmul,___fladd@b
  2880  003BAE  C515  F52E         	movff	?___flmul+1,___fladd@b+1
  2881  003BB2  C516  F52F         	movff	?___flmul+2,___fladd@b+2
  2882  003BB6  C517  F530         	movff	?___flmul+3,___fladd@b+3
  2883  003BBA  0E3F               	movlw	63
  2884  003BBC  6E31               	movwf	___fladd@a^(0+1280),c
  2885  003BBE  0E04               	movlw	4
  2886  003BC0  6E32               	movwf	(___fladd@a+1)^(0+1280),c
  2887  003BC2  0EB6               	movlw	182
  2888  003BC4  6E33               	movwf	(___fladd@a+2)^(0+1280),c
  2889  003BC6  0EBA               	movlw	186
  2890  003BC8  6E34               	movwf	(___fladd@a+3)^(0+1280),c
  2891  003BCA  ECEF  F017         	call	___fladd	;wreg free
  2892  003BCE  C52D  F560         	movff	?___fladd,___cosdf@r
  2893  003BD2  C52E  F561         	movff	?___fladd+1,___cosdf@r+1
  2894  003BD6  C52F  F562         	movff	?___fladd+2,___cosdf@r+2
  2895  003BDA  C530  F563         	movff	?___fladd+3,___cosdf@r+3
  2896  003BDE  0E00               	movlw	0
  2897  003BE0  6E31               	movwf	___fladd@a^(0+1280),c
  2898  003BE2  0E00               	movlw	0
  2899  003BE4  6E32               	movwf	(___fladd@a+1)^(0+1280),c
  2900  003BE6  0E80               	movlw	128
  2901  003BE8  6E33               	movwf	(___fladd@a+2)^(0+1280),c
  2902  003BEA  0E3F               	movlw	63
  2903  003BEC  6E34               	movwf	(___fladd@a+3)^(0+1280),c
  2904  003BEE  0E00               	movlw	0
  2905  003BF0  6E18               	movwf	___flmul@a^(0+1280),c
  2906  003BF2  0E00               	movlw	0
  2907  003BF4  6E19               	movwf	(___flmul@a+1)^(0+1280),c
  2908  003BF6  0E00               	movlw	0
  2909  003BF8  6E1A               	movwf	(___flmul@a+2)^(0+1280),c
  2910  003BFA  0EBF               	movlw	191
  2911  003BFC  6E1B               	movwf	(___flmul@a+3)^(0+1280),c
  2912  003BFE  C574  F514         	movff	___cosdf@z,___flmul@b
  2913  003C02  C575  F515         	movff	___cosdf@z+1,___flmul@b+1
  2914  003C06  C576  F516         	movff	___cosdf@z+2,___flmul@b+2
  2915  003C0A  C577  F517         	movff	___cosdf@z+3,___flmul@b+3
  2916  003C0E  EC4F  F01A         	call	___flmul	;wreg free
  2917  003C12  C514  F52D         	movff	?___flmul,___fladd@b
  2918  003C16  C515  F52E         	movff	?___flmul+1,___fladd@b+1
  2919  003C1A  C516  F52F         	movff	?___flmul+2,___fladd@b+2
  2920  003C1E  C517  F530         	movff	?___flmul+3,___fladd@b+3
  2921  003C22  ECEF  F017         	call	___fladd	;wreg free
  2922  003C26  C52D  F564         	movff	?___fladd,___cosdf$1980
  2923  003C2A  C52E  F565         	movff	?___fladd+1,___cosdf$1980+1
  2924  003C2E  C52F  F566         	movff	?___fladd+2,___cosdf$1980+2
  2925  003C32  C530  F567         	movff	?___fladd+3,___cosdf$1980+3
  2926  003C36  C574  F518         	movff	___cosdf@z,___flmul@a
  2927  003C3A  C575  F519         	movff	___cosdf@z+1,___flmul@a+1
  2928  003C3E  C576  F51A         	movff	___cosdf@z+2,___flmul@a+2
  2929  003C42  C577  F51B         	movff	___cosdf@z+3,___flmul@a+3
  2930  003C46  C570  F514         	movff	___cosdf@w,___flmul@b
  2931  003C4A  C571  F515         	movff	___cosdf@w+1,___flmul@b+1
  2932  003C4E  C572  F516         	movff	___cosdf@w+2,___flmul@b+2
  2933  003C52  C573  F517         	movff	___cosdf@w+3,___flmul@b+3
  2934  003C56  EC4F  F01A         	call	___flmul	;wreg free
  2935  003C5A  C514  F568         	movff	?___flmul,___cosdf$1981
  2936  003C5E  C515  F569         	movff	?___flmul+1,___cosdf$1981+1
  2937  003C62  C516  F56A         	movff	?___flmul+2,___cosdf$1981+2
  2938  003C66  C517  F56B         	movff	?___flmul+3,___cosdf$1981+3
  2939  003C6A  0E9F               	movlw	159
  2940  003C6C  6E18               	movwf	___flmul@a^(0+1280),c
  2941  003C6E  0EAA               	movlw	170
  2942  003C70  6E19               	movwf	(___flmul@a+1)^(0+1280),c
  2943  003C72  0E2A               	movlw	42
  2944  003C74  6E1A               	movwf	(___flmul@a+2)^(0+1280),c
  2945  003C76  0E3D               	movlw	61
  2946  003C78  6E1B               	movwf	(___flmul@a+3)^(0+1280),c
  2947  003C7A  C570  F514         	movff	___cosdf@w,___flmul@b
  2948  003C7E  C571  F515         	movff	___cosdf@w+1,___flmul@b+1
  2949  003C82  C572  F516         	movff	___cosdf@w+2,___flmul@b+2
  2950  003C86  C573  F517         	movff	___cosdf@w+3,___flmul@b+3
  2951  003C8A  EC4F  F01A         	call	___flmul	;wreg free
  2952  003C8E  C514  F531         	movff	?___flmul,___fladd@a
  2953  003C92  C515  F532         	movff	?___flmul+1,___fladd@a+1
  2954  003C96  C516  F533         	movff	?___flmul+2,___fladd@a+2
  2955  003C9A  C517  F534         	movff	?___flmul+3,___fladd@a+3
  2956  003C9E  C564  F52D         	movff	___cosdf$1980,___fladd@b
  2957  003CA2  C565  F52E         	movff	___cosdf$1980+1,___fladd@b+1
  2958  003CA6  C566  F52F         	movff	___cosdf$1980+2,___fladd@b+2
  2959  003CAA  C567  F530         	movff	___cosdf$1980+3,___fladd@b+3
  2960  003CAE  ECEF  F017         	call	___fladd	;wreg free
  2961  003CB2  C52D  F56C         	movff	?___fladd,___cosdf$1982
  2962  003CB6  C52E  F56D         	movff	?___fladd+1,___cosdf$1982+1
  2963  003CBA  C52F  F56E         	movff	?___fladd+2,___cosdf$1982+2
  2964  003CBE  C530  F56F         	movff	?___fladd+3,___cosdf$1982+3
  2965  003CC2  C56C  F52D         	movff	___cosdf$1982,___fladd@b
  2966  003CC6  C56D  F52E         	movff	___cosdf$1982+1,___fladd@b+1
  2967  003CCA  C56E  F52F         	movff	___cosdf$1982+2,___fladd@b+2
  2968  003CCE  C56F  F530         	movff	___cosdf$1982+3,___fladd@b+3
  2969  003CD2  C560  F518         	movff	___cosdf@r,___flmul@a
  2970  003CD6  C561  F519         	movff	___cosdf@r+1,___flmul@a+1
  2971  003CDA  C562  F51A         	movff	___cosdf@r+2,___flmul@a+2
  2972  003CDE  C563  F51B         	movff	___cosdf@r+3,___flmul@a+3
  2973  003CE2  C568  F514         	movff	___cosdf$1981,___flmul@b
  2974  003CE6  C569  F515         	movff	___cosdf$1981+1,___flmul@b+1
  2975  003CEA  C56A  F516         	movff	___cosdf$1981+2,___flmul@b+2
  2976  003CEE  C56B  F517         	movff	___cosdf$1981+3,___flmul@b+3
  2977  003CF2  EC4F  F01A         	call	___flmul	;wreg free
  2978  003CF6  C514  F531         	movff	?___flmul,___fladd@a
  2979  003CFA  C515  F532         	movff	?___flmul+1,___fladd@a+1
  2980  003CFE  C516  F533         	movff	?___flmul+2,___fladd@a+2
  2981  003D02  C517  F534         	movff	?___flmul+3,___fladd@a+3
  2982  003D06  ECEF  F017         	call	___fladd	;wreg free
  2983  003D0A  C52D  F53D         	movff	?___fladd,?___cosdf
  2984  003D0E  C52E  F53E         	movff	?___fladd+1,?___cosdf+1
  2985  003D12  C52F  F53F         	movff	?___fladd+2,?___cosdf+2
  2986  003D16  C530  F540         	movff	?___fladd+3,?___cosdf+3
  2987  003D1A  0012               	return		;funcret
  2988  003D1C                     __end_of___cosdf:
  2989                           	callstack 0
  2990                           
  2991 ;; *************** function ___flmul *****************
  2992 ;; Defined at:
  2993 ;;		line 8 in file "C:\Program Files\Microchip\xc8\v2.36\pic\sources\c99\common\sprcmul.c"
  2994 ;; Parameters:    Size  Location     Type
  2995 ;;  b               4   19[COMRAM] float 
  2996 ;;  a               4   23[COMRAM] float 
  2997 ;; Auto vars:     Size  Location     Type
  2998 ;;  prod            4   38[COMRAM] struct .
  2999 ;;  grs             4   33[COMRAM] unsigned long 
  3000 ;;  temp            2   42[COMRAM] struct .
  3001 ;;  bexp            1   37[COMRAM] unsigned char 
  3002 ;;  aexp            1   32[COMRAM] unsigned char 
  3003 ;;  sign            1   31[COMRAM] unsigned char 
  3004 ;; Return value:  Size  Location     Type
  3005 ;;                  4   19[COMRAM] unsigned char 
  3006 ;; Registers used:
  3007 ;;		wreg, status,2, status,0, prodl, prodh
  3008 ;; Tracked objects:
  3009 ;;		On entry : 0/0
  3010 ;;		On exit  : 0/0
  3011 ;;		Unchanged: 0/0
  3012 ;; Data sizes:     COMRAM   BANK5   BANK6   BANK7   BANK8   BANK9  BANK10  BANK11  BANK12  BANK13  BANK14  BANK15  BANK1
      +6  BANK17  BANK18  BANK19  BANK20  BANK21  BANK22  BANK23  BANK24  BANK25  BANK26  BANK27  BANK28  BANK29  BANK30  BANK3
      +1  BANK32  BANK33  BANK34  BANK35  BANK36
  3013 ;;      Params:         8       0       0       0       0       0       0       0       0       0       0       0       
      +0       0       0       0       0       0       0       0       0       0       0       0       0       0       0       
      +0       0       0       0       0       0
  3014 ;;      Locals:        13       0       0       0       0       0       0       0       0       0       0       0       
      +0       0       0       0       0       0       0       0       0       0       0       0       0       0       0       
      +0       0       0       0       0       0
  3015 ;;      Temps:          4       0       0       0       0       0       0       0       0       0       0       0       
      +0       0       0       0       0       0       0       0       0       0       0       0       0       0       0       
      +0       0       0       0       0       0
  3016 ;;      Totals:        25       0       0       0       0       0       0       0       0       0       0       0       
      +0       0       0       0       0       0       0       0       0       0       0       0       0       0       0       
      +0       0       0       0       0       0
  3017 ;;Total ram usage:       25 bytes
  3018 ;; Hardware stack levels used: 1
  3019 ;; Hardware stack levels required when called: 6
  3020 ;; This function calls:
  3021 ;;		Nothing
  3022 ;; This function is called by:
  3023 ;;		_main
  3024 ;;		___cosdf
  3025 ;;		___rem_pio2f
  3026 ;;		___sindf
  3027 ;; This function uses a non-reentrant model
  3028 ;;
  3029                           
  3030                           	psect	text10
  3031  00349E                     __ptext10:
  3032                           	callstack 0
  3033  00349E                     ___flmul:
  3034                           	callstack 118
  3035  00349E  5017               	movf	(___flmul@b+3)^(0+1280),w,c
  3036  0034A0  0B80               	andlw	128
  3037  0034A2  6E20               	movwf	___flmul@sign^(0+1280),c
  3038  0034A4  5017               	movf	(___flmul@b+3)^(0+1280),w,c
  3039  0034A6  2417               	addwf	(___flmul@b+3)^(0+1280),w,c
  3040  0034A8  6E26               	movwf	___flmul@bexp^(0+1280),c
  3041  0034AA  AE16               	btfss	(___flmul@b+2)^(0+1280),7,c
  3042  0034AC  EF5A  F01A         	goto	u2491
  3043  0034B0  EF5C  F01A         	goto	u2490
  3044  0034B4                     u2491:
  3045  0034B4  EF5D  F01A         	goto	l3423
  3046  0034B8                     u2490:
  3047  0034B8  8026               	bsf	___flmul@bexp^(0+1280),0,c
  3048  0034BA                     l3423:
  3049  0034BA  5026               	movf	___flmul@bexp^(0+1280),w,c
  3050  0034BC  B4D8               	btfsc	status,2,c
  3051  0034BE  EF63  F01A         	goto	u2501
  3052  0034C2  EF65  F01A         	goto	u2500
  3053  0034C6                     u2501:
  3054  0034C6  EF78  F01A         	goto	l3431
  3055  0034CA                     u2500:
  3056  0034CA  2826               	incf	___flmul@bexp^(0+1280),w,c
  3057  0034CC  A4D8               	btfss	status,2,c
  3058  0034CE  EF6B  F01A         	goto	u2511
  3059  0034D2  EF6D  F01A         	goto	u2510
  3060  0034D6                     u2511:
  3061  0034D6  EF75  F01A         	goto	l3429
  3062  0034DA                     u2510:
  3063  0034DA  0E00               	movlw	0
  3064  0034DC  6E14               	movwf	___flmul@b^(0+1280),c
  3065  0034DE  0E00               	movlw	0
  3066  0034E0  6E15               	movwf	(___flmul@b+1)^(0+1280),c
  3067  0034E2  0E00               	movlw	0
  3068  0034E4  6E16               	movwf	(___flmul@b+2)^(0+1280),c
  3069  0034E6  0E00               	movlw	0
  3070  0034E8  6E17               	movwf	(___flmul@b+3)^(0+1280),c
  3071  0034EA                     l3429:
  3072  0034EA  8E16               	bsf	(___flmul@b+2)^(0+1280),7,c
  3073  0034EC  EF80  F01A         	goto	l3433
  3074  0034F0                     l3431:
  3075  0034F0  0E00               	movlw	0
  3076  0034F2  6E14               	movwf	___flmul@b^(0+1280),c
  3077  0034F4  0E00               	movlw	0
  3078  0034F6  6E15               	movwf	(___flmul@b+1)^(0+1280),c
  3079  0034F8  0E00               	movlw	0
  3080  0034FA  6E16               	movwf	(___flmul@b+2)^(0+1280),c
  3081  0034FC  0E00               	movlw	0
  3082  0034FE  6E17               	movwf	(___flmul@b+3)^(0+1280),c
  3083  003500                     l3433:
  3084  003500  501B               	movf	(___flmul@a+3)^(0+1280),w,c
  3085  003502  0B80               	andlw	128
  3086  003504  1A20               	xorwf	___flmul@sign^(0+1280),f,c
  3087  003506  501B               	movf	(___flmul@a+3)^(0+1280),w,c
  3088  003508  241B               	addwf	(___flmul@a+3)^(0+1280),w,c
  3089  00350A  6E21               	movwf	___flmul@aexp^(0+1280),c
  3090  00350C  AE1A               	btfss	(___flmul@a+2)^(0+1280),7,c
  3091  00350E  EF8B  F01A         	goto	u2521
  3092  003512  EF8D  F01A         	goto	u2520
  3093  003516                     u2521:
  3094  003516  EF8E  F01A         	goto	l3441
  3095  00351A                     u2520:
  3096  00351A  8021               	bsf	___flmul@aexp^(0+1280),0,c
  3097  00351C                     l3441:
  3098  00351C  5021               	movf	___flmul@aexp^(0+1280),w,c
  3099  00351E  B4D8               	btfsc	status,2,c
  3100  003520  EF94  F01A         	goto	u2531
  3101  003524  EF96  F01A         	goto	u2530
  3102  003528                     u2531:
  3103  003528  EFA9  F01A         	goto	l3449
  3104  00352C                     u2530:
  3105  00352C  2821               	incf	___flmul@aexp^(0+1280),w,c
  3106  00352E  A4D8               	btfss	status,2,c
  3107  003530  EF9C  F01A         	goto	u2541
  3108  003534  EF9E  F01A         	goto	u2540
  3109  003538                     u2541:
  3110  003538  EFA6  F01A         	goto	l3447
  3111  00353C                     u2540:
  3112  00353C  0E00               	movlw	0
  3113  00353E  6E18               	movwf	___flmul@a^(0+1280),c
  3114  003540  0E00               	movlw	0
  3115  003542  6E19               	movwf	(___flmul@a+1)^(0+1280),c
  3116  003544  0E00               	movlw	0
  3117  003546  6E1A               	movwf	(___flmul@a+2)^(0+1280),c
  3118  003548  0E00               	movlw	0
  3119  00354A  6E1B               	movwf	(___flmul@a+3)^(0+1280),c
  3120  00354C                     l3447:
  3121  00354C  8E1A               	bsf	(___flmul@a+2)^(0+1280),7,c
  3122  00354E  EFB1  F01A         	goto	l1162
  3123  003552                     l3449:
  3124  003552  0E00               	movlw	0
  3125  003554  6E18               	movwf	___flmul@a^(0+1280),c
  3126  003556  0E00               	movlw	0
  3127  003558  6E19               	movwf	(___flmul@a+1)^(0+1280),c
  3128  00355A  0E00               	movlw	0
  3129  00355C  6E1A               	movwf	(___flmul@a+2)^(0+1280),c
  3130  00355E  0E00               	movlw	0
  3131  003560  6E1B               	movwf	(___flmul@a+3)^(0+1280),c
  3132  003562                     l1162:
  3133  003562  5021               	movf	___flmul@aexp^(0+1280),w,c
  3134  003564  B4D8               	btfsc	status,2,c
  3135  003566  EFB7  F01A         	goto	u2551
  3136  00356A  EFB9  F01A         	goto	u2550
  3137  00356E                     u2551:
  3138  00356E  EFC1  F01A         	goto	l3453
  3139  003572                     u2550:
  3140  003572  5026               	movf	___flmul@bexp^(0+1280),w,c
  3141  003574  A4D8               	btfss	status,2,c
  3142  003576  EFBF  F01A         	goto	u2561
  3143  00357A  EFC1  F01A         	goto	u2560
  3144  00357E                     u2561:
  3145  00357E  EFCB  F01A         	goto	l3457
  3146  003582                     u2560:
  3147  003582                     l3453:
  3148  003582  0E00               	movlw	0
  3149  003584  6E14               	movwf	?___flmul^(0+1280),c
  3150  003586  0E00               	movlw	0
  3151  003588  6E15               	movwf	(?___flmul+1)^(0+1280),c
  3152  00358A  0E00               	movlw	0
  3153  00358C  6E16               	movwf	(?___flmul+2)^(0+1280),c
  3154  00358E  0E00               	movlw	0
  3155  003590  6E17               	movwf	(?___flmul+3)^(0+1280),c
  3156  003592  EF75  F01C         	goto	l1166
  3157  003596                     l3457:
  3158  003596  501A               	movf	(___flmul@a+2)^(0+1280),w,c
  3159  003598  0214               	mulwf	___flmul@b^(0+1280),c
  3160  00359A  0061 F3CC  F52B    	movff	prodl,___flmul@temp
  3161  0035A0  0061 F3D0  F52C    	movff	prodh,___flmul@temp+1
  3162  0035A6  502B               	movf	___flmul@temp^(0+1280),w,c
  3163  0035A8  6E22               	movwf	___flmul@grs^(0+1280),c
  3164  0035AA  6A23               	clrf	(___flmul@grs+1)^(0+1280),c
  3165  0035AC  6A24               	clrf	(___flmul@grs+2)^(0+1280),c
  3166  0035AE  6A25               	clrf	(___flmul@grs+3)^(0+1280),c
  3167  0035B0  502C               	movf	(___flmul@temp+1)^(0+1280),w,c
  3168  0035B2  6E27               	movwf	___flmul@prod^(0+1280),c
  3169  0035B4  6A28               	clrf	(___flmul@prod+1)^(0+1280),c
  3170  0035B6  6A29               	clrf	(___flmul@prod+2)^(0+1280),c
  3171  0035B8  6A2A               	clrf	(___flmul@prod+3)^(0+1280),c
  3172  0035BA  5019               	movf	(___flmul@a+1)^(0+1280),w,c
  3173  0035BC  0215               	mulwf	(___flmul@b+1)^(0+1280),c
  3174  0035BE  0061 F3CC  F52B    	movff	prodl,___flmul@temp
  3175  0035C4  0061 F3D0  F52C    	movff	prodh,___flmul@temp+1
  3176  0035CA  502B               	movf	___flmul@temp^(0+1280),w,c
  3177  0035CC  2622               	addwf	___flmul@grs^(0+1280),f,c
  3178  0035CE  0E00               	movlw	0
  3179  0035D0  2223               	addwfc	(___flmul@grs+1)^(0+1280),f,c
  3180  0035D2  2224               	addwfc	(___flmul@grs+2)^(0+1280),f,c
  3181  0035D4  2225               	addwfc	(___flmul@grs+3)^(0+1280),f,c
  3182  0035D6  502C               	movf	(___flmul@temp+1)^(0+1280),w,c
  3183  0035D8  2627               	addwf	___flmul@prod^(0+1280),f,c
  3184  0035DA  0E00               	movlw	0
  3185  0035DC  2228               	addwfc	(___flmul@prod+1)^(0+1280),f,c
  3186  0035DE  2229               	addwfc	(___flmul@prod+2)^(0+1280),f,c
  3187  0035E0  222A               	addwfc	(___flmul@prod+3)^(0+1280),f,c
  3188  0035E2  5018               	movf	___flmul@a^(0+1280),w,c
  3189  0035E4  0216               	mulwf	(___flmul@b+2)^(0+1280),c
  3190  0035E6  0061 F3CC  F52B    	movff	prodl,___flmul@temp
  3191  0035EC  0061 F3D0  F52C    	movff	prodh,___flmul@temp+1
  3192  0035F2  502B               	movf	___flmul@temp^(0+1280),w,c
  3193  0035F4  2622               	addwf	___flmul@grs^(0+1280),f,c
  3194  0035F6  0E00               	movlw	0
  3195  0035F8  2223               	addwfc	(___flmul@grs+1)^(0+1280),f,c
  3196  0035FA  2224               	addwfc	(___flmul@grs+2)^(0+1280),f,c
  3197  0035FC  2225               	addwfc	(___flmul@grs+3)^(0+1280),f,c
  3198  0035FE  502C               	movf	(___flmul@temp+1)^(0+1280),w,c
  3199  003600  2627               	addwf	___flmul@prod^(0+1280),f,c
  3200  003602  0E00               	movlw	0
  3201  003604  2228               	addwfc	(___flmul@prod+1)^(0+1280),f,c
  3202  003606  2229               	addwfc	(___flmul@prod+2)^(0+1280),f,c
  3203  003608  222A               	addwfc	(___flmul@prod+3)^(0+1280),f,c
  3204  00360A  C524  F525         	movff	___flmul@grs+2,___flmul@grs+3
  3205  00360E  C523  F524         	movff	___flmul@grs+1,___flmul@grs+2
  3206  003612  C522  F523         	movff	___flmul@grs,___flmul@grs+1
  3207  003616  6A22               	clrf	___flmul@grs^(0+1280),c
  3208  003618  5018               	movf	___flmul@a^(0+1280),w,c
  3209  00361A  0215               	mulwf	(___flmul@b+1)^(0+1280),c
  3210  00361C  0061 F3CC  F52B    	movff	prodl,___flmul@temp
  3211  003622  0061 F3D0  F52C    	movff	prodh,___flmul@temp+1
  3212  003628  502B               	movf	___flmul@temp^(0+1280),w,c
  3213  00362A  2622               	addwf	___flmul@grs^(0+1280),f,c
  3214  00362C  502C               	movf	(___flmul@temp+1)^(0+1280),w,c
  3215  00362E  2223               	addwfc	(___flmul@grs+1)^(0+1280),f,c
  3216  003630  0E00               	movlw	0
  3217  003632  2224               	addwfc	(___flmul@grs+2)^(0+1280),f,c
  3218  003634  0E00               	movlw	0
  3219  003636  2225               	addwfc	(___flmul@grs+3)^(0+1280),f,c
  3220  003638  5019               	movf	(___flmul@a+1)^(0+1280),w,c
  3221  00363A  0214               	mulwf	___flmul@b^(0+1280),c
  3222  00363C  0061 F3CC  F52B    	movff	prodl,___flmul@temp
  3223  003642  0061 F3D0  F52C    	movff	prodh,___flmul@temp+1
  3224  003648  502B               	movf	___flmul@temp^(0+1280),w,c
  3225  00364A  2622               	addwf	___flmul@grs^(0+1280),f,c
  3226  00364C  502C               	movf	(___flmul@temp+1)^(0+1280),w,c
  3227  00364E  2223               	addwfc	(___flmul@grs+1)^(0+1280),f,c
  3228  003650  0E00               	movlw	0
  3229  003652  2224               	addwfc	(___flmul@grs+2)^(0+1280),f,c
  3230  003654  0E00               	movlw	0
  3231  003656  2225               	addwfc	(___flmul@grs+3)^(0+1280),f,c
  3232  003658  C524  F525         	movff	___flmul@grs+2,___flmul@grs+3
  3233  00365C  C523  F524         	movff	___flmul@grs+1,___flmul@grs+2
  3234  003660  C522  F523         	movff	___flmul@grs,___flmul@grs+1
  3235  003664  6A22               	clrf	___flmul@grs^(0+1280),c
  3236  003666  5018               	movf	___flmul@a^(0+1280),w,c
  3237  003668  0214               	mulwf	___flmul@b^(0+1280),c
  3238  00366A  0061 F3CC  F52B    	movff	prodl,___flmul@temp
  3239  003670  0061 F3D0  F52C    	movff	prodh,___flmul@temp+1
  3240  003676  502B               	movf	___flmul@temp^(0+1280),w,c
  3241  003678  2622               	addwf	___flmul@grs^(0+1280),f,c
  3242  00367A  502C               	movf	(___flmul@temp+1)^(0+1280),w,c
  3243  00367C  2223               	addwfc	(___flmul@grs+1)^(0+1280),f,c
  3244  00367E  0E00               	movlw	0
  3245  003680  2224               	addwfc	(___flmul@grs+2)^(0+1280),f,c
  3246  003682  0E00               	movlw	0
  3247  003684  2225               	addwfc	(___flmul@grs+3)^(0+1280),f,c
  3248  003686  501A               	movf	(___flmul@a+2)^(0+1280),w,c
  3249  003688  0215               	mulwf	(___flmul@b+1)^(0+1280),c
  3250  00368A  0061 F3CC  F52B    	movff	prodl,___flmul@temp
  3251  003690  0061 F3D0  F52C    	movff	prodh,___flmul@temp+1
  3252  003696  502B               	movf	___flmul@temp^(0+1280),w,c
  3253  003698  2627               	addwf	___flmul@prod^(0+1280),f,c
  3254  00369A  502C               	movf	(___flmul@temp+1)^(0+1280),w,c
  3255  00369C  2228               	addwfc	(___flmul@prod+1)^(0+1280),f,c
  3256  00369E  0E00               	movlw	0
  3257  0036A0  2229               	addwfc	(___flmul@prod+2)^(0+1280),f,c
  3258  0036A2  0E00               	movlw	0
  3259  0036A4  222A               	addwfc	(___flmul@prod+3)^(0+1280),f,c
  3260  0036A6  5019               	movf	(___flmul@a+1)^(0+1280),w,c
  3261  0036A8  0216               	mulwf	(___flmul@b+2)^(0+1280),c
  3262  0036AA  0061 F3CC  F52B    	movff	prodl,___flmul@temp
  3263  0036B0  0061 F3D0  F52C    	movff	prodh,___flmul@temp+1
  3264  0036B6  502B               	movf	___flmul@temp^(0+1280),w,c
  3265  0036B8  2627               	addwf	___flmul@prod^(0+1280),f,c
  3266  0036BA  502C               	movf	(___flmul@temp+1)^(0+1280),w,c
  3267  0036BC  2228               	addwfc	(___flmul@prod+1)^(0+1280),f,c
  3268  0036BE  0E00               	movlw	0
  3269  0036C0  2229               	addwfc	(___flmul@prod+2)^(0+1280),f,c
  3270  0036C2  0E00               	movlw	0
  3271  0036C4  222A               	addwfc	(___flmul@prod+3)^(0+1280),f,c
  3272  0036C6  501A               	movf	(___flmul@a+2)^(0+1280),w,c
  3273  0036C8  0216               	mulwf	(___flmul@b+2)^(0+1280),c
  3274  0036CA  0061 F3CC  F52B    	movff	prodl,___flmul@temp
  3275  0036D0  0061 F3D0  F52C    	movff	prodh,___flmul@temp+1
  3276  0036D6  502B               	movf	___flmul@temp^(0+1280),w,c
  3277  0036D8  6E1C               	movwf	??___flmul^(0+1280),c
  3278  0036DA  502C               	movf	(___flmul@temp+1)^(0+1280),w,c
  3279  0036DC  6E1D               	movwf	(??___flmul+1)^(0+1280),c
  3280  0036DE  6A1E               	clrf	(??___flmul+2)^(0+1280),c
  3281  0036E0  6A1F               	clrf	(??___flmul+3)^(0+1280),c
  3282  0036E2  C51E  F51F         	movff	??___flmul+2,??___flmul+3
  3283  0036E6  C51D  F51E         	movff	??___flmul+1,??___flmul+2
  3284  0036EA  C51C  F51D         	movff	??___flmul,??___flmul+1
  3285  0036EE  6A1C               	clrf	??___flmul^(0+1280),c
  3286  0036F0  501C               	movf	??___flmul^(0+1280),w,c
  3287  0036F2  2627               	addwf	___flmul@prod^(0+1280),f,c
  3288  0036F4  501D               	movf	(??___flmul+1)^(0+1280),w,c
  3289  0036F6  2228               	addwfc	(___flmul@prod+1)^(0+1280),f,c
  3290  0036F8  501E               	movf	(??___flmul+2)^(0+1280),w,c
  3291  0036FA  2229               	addwfc	(___flmul@prod+2)^(0+1280),f,c
  3292  0036FC  501F               	movf	(??___flmul+3)^(0+1280),w,c
  3293  0036FE  222A               	addwfc	(___flmul@prod+3)^(0+1280),f,c
  3294  003700  C522  F51C         	movff	___flmul@grs,??___flmul
  3295  003704  C523  F51D         	movff	___flmul@grs+1,??___flmul+1
  3296  003708  C524  F51E         	movff	___flmul@grs+2,??___flmul+2
  3297  00370C  C525  F51F         	movff	___flmul@grs+3,??___flmul+3
  3298  003710  0E19               	movlw	25
  3299  003712  EF90  F01B         	goto	u2570
  3300  003716                     u2575:
  3301  003716  90D8               	bcf	status,0,c
  3302  003718  321F               	rrcf	(??___flmul+3)^(0+1280),f,c
  3303  00371A  321E               	rrcf	(??___flmul+2)^(0+1280),f,c
  3304  00371C  321D               	rrcf	(??___flmul+1)^(0+1280),f,c
  3305  00371E  321C               	rrcf	??___flmul^(0+1280),f,c
  3306  003720                     u2570:
  3307  003720  2EE8               	decfsz	wreg,f,c
  3308  003722  EF8B  F01B         	goto	u2575
  3309  003726  501C               	movf	??___flmul^(0+1280),w,c
  3310  003728  2627               	addwf	___flmul@prod^(0+1280),f,c
  3311  00372A  501D               	movf	(??___flmul+1)^(0+1280),w,c
  3312  00372C  2228               	addwfc	(___flmul@prod+1)^(0+1280),f,c
  3313  00372E  501E               	movf	(??___flmul+2)^(0+1280),w,c
  3314  003730  2229               	addwfc	(___flmul@prod+2)^(0+1280),f,c
  3315  003732  501F               	movf	(??___flmul+3)^(0+1280),w,c
  3316  003734  222A               	addwfc	(___flmul@prod+3)^(0+1280),f,c
  3317  003736  C524  F525         	movff	___flmul@grs+2,___flmul@grs+3
  3318  00373A  C523  F524         	movff	___flmul@grs+1,___flmul@grs+2
  3319  00373E  C522  F523         	movff	___flmul@grs,___flmul@grs+1
  3320  003742  6A22               	clrf	___flmul@grs^(0+1280),c
  3321  003744  5021               	movf	___flmul@aexp^(0+1280),w,c
  3322  003746  C526  F51C         	movff	___flmul@bexp,??___flmul
  3323  00374A  6A1D               	clrf	(??___flmul+1)^(0+1280),c
  3324  00374C  261C               	addwf	??___flmul^(0+1280),f,c
  3325  00374E  0E00               	movlw	0
  3326  003750  221D               	addwfc	(??___flmul+1)^(0+1280),f,c
  3327  003752  0E82               	movlw	130
  3328  003754  241C               	addwf	??___flmul^(0+1280),w,c
  3329  003756  6E2B               	movwf	___flmul@temp^(0+1280),c
  3330  003758  0EFF               	movlw	255
  3331  00375A  201D               	addwfc	(??___flmul+1)^(0+1280),w,c
  3332  00375C  6E2C               	movwf	(___flmul@temp+1)^(0+1280),c
  3333  00375E  EFC6  F01B         	goto	l3505
  3334  003762                     l3499:
  3335  003762  90D8               	bcf	status,0,c
  3336  003764  3627               	rlcf	___flmul@prod^(0+1280),f,c
  3337  003766  3628               	rlcf	(___flmul@prod+1)^(0+1280),f,c
  3338  003768  3629               	rlcf	(___flmul@prod+2)^(0+1280),f,c
  3339  00376A  362A               	rlcf	(___flmul@prod+3)^(0+1280),f,c
  3340  00376C  AE25               	btfss	(___flmul@grs+3)^(0+1280),7,c
  3341  00376E  EFBB  F01B         	goto	u2581
  3342  003772  EFBD  F01B         	goto	u2580
  3343  003776                     u2581:
  3344  003776  EFBE  F01B         	goto	l1169
  3345  00377A                     u2580:
  3346  00377A  8027               	bsf	___flmul@prod^(0+1280),0,c
  3347  00377C                     l1169:
  3348  00377C  90D8               	bcf	status,0,c
  3349  00377E  3622               	rlcf	___flmul@grs^(0+1280),f,c
  3350  003780  3623               	rlcf	(___flmul@grs+1)^(0+1280),f,c
  3351  003782  3624               	rlcf	(___flmul@grs+2)^(0+1280),f,c
  3352  003784  3625               	rlcf	(___flmul@grs+3)^(0+1280),f,c
  3353  003786  062B               	decf	___flmul@temp^(0+1280),f,c
  3354  003788  A0D8               	btfss	status,0,c
  3355  00378A  062C               	decf	(___flmul@temp+1)^(0+1280),f,c
  3356  00378C                     l3505:
  3357  00378C  AE29               	btfss	(___flmul@prod+2)^(0+1280),7,c
  3358  00378E  EFCB  F01B         	goto	u2591
  3359  003792  EFCD  F01B         	goto	u2590
  3360  003796                     u2591:
  3361  003796  EFB1  F01B         	goto	l3499
  3362  00379A                     u2590:
  3363  00379A  0E00               	movlw	0
  3364  00379C  6E21               	movwf	___flmul@aexp^(0+1280),c
  3365  00379E  AE25               	btfss	(___flmul@grs+3)^(0+1280),7,c
  3366  0037A0  EFD4  F01B         	goto	u2601
  3367  0037A4  EFD6  F01B         	goto	u2600
  3368  0037A8                     u2601:
  3369  0037A8  EFFA  F01B         	goto	l1171
  3370  0037AC                     u2600:
  3371  0037AC  0EFF               	movlw	255
  3372  0037AE  1422               	andwf	___flmul@grs^(0+1280),w,c
  3373  0037B0  6E1C               	movwf	??___flmul^(0+1280),c
  3374  0037B2  0EFF               	movlw	255
  3375  0037B4  1423               	andwf	(___flmul@grs+1)^(0+1280),w,c
  3376  0037B6  6E1D               	movwf	(??___flmul+1)^(0+1280),c
  3377  0037B8  0EFF               	movlw	255
  3378  0037BA  1424               	andwf	(___flmul@grs+2)^(0+1280),w,c
  3379  0037BC  6E1E               	movwf	(??___flmul+2)^(0+1280),c
  3380  0037BE  0E7F               	movlw	127
  3381  0037C0  1425               	andwf	(___flmul@grs+3)^(0+1280),w,c
  3382  0037C2  6E1F               	movwf	(??___flmul+3)^(0+1280),c
  3383  0037C4  501C               	movf	??___flmul^(0+1280),w,c
  3384  0037C6  101D               	iorwf	(??___flmul+1)^(0+1280),w,c
  3385  0037C8  101E               	iorwf	(??___flmul+2)^(0+1280),w,c
  3386  0037CA  101F               	iorwf	(??___flmul+3)^(0+1280),w,c
  3387  0037CC  B4D8               	btfsc	status,2,c
  3388  0037CE  EFEB  F01B         	goto	u2611
  3389  0037D2  EFED  F01B         	goto	u2610
  3390  0037D6                     u2611:
  3391  0037D6  EFF1  F01B         	goto	l1172
  3392  0037DA                     u2610:
  3393  0037DA                     l3513:
  3394  0037DA  0E01               	movlw	1
  3395  0037DC  6E21               	movwf	___flmul@aexp^(0+1280),c
  3396  0037DE  EFFA  F01B         	goto	l1171
  3397  0037E2                     l1172:
  3398  0037E2  A027               	btfss	___flmul@prod^(0+1280),0,c
  3399  0037E4  EFF6  F01B         	goto	u2621
  3400  0037E8  EFF8  F01B         	goto	u2620
  3401  0037EC                     u2621:
  3402  0037EC  EFFA  F01B         	goto	l1171
  3403  0037F0                     u2620:
  3404  0037F0  EFED  F01B         	goto	l3513
  3405  0037F4                     l1171:
  3406  0037F4  5021               	movf	___flmul@aexp^(0+1280),w,c
  3407  0037F6  B4D8               	btfsc	status,2,c
  3408  0037F8  EF00  F01C         	goto	u2631
  3409  0037FC  EF02  F01C         	goto	u2630
  3410  003800                     u2631:
  3411  003800  EF26  F01C         	goto	l3525
  3412  003804                     u2630:
  3413  003804  0E01               	movlw	1
  3414  003806  2627               	addwf	___flmul@prod^(0+1280),f,c
  3415  003808  0E00               	movlw	0
  3416  00380A  2228               	addwfc	(___flmul@prod+1)^(0+1280),f,c
  3417  00380C  2229               	addwfc	(___flmul@prod+2)^(0+1280),f,c
  3418  00380E  222A               	addwfc	(___flmul@prod+3)^(0+1280),f,c
  3419  003810  A02A               	btfss	(___flmul@prod+3)^(0+1280),0,c
  3420  003812  EF0D  F01C         	goto	u2641
  3421  003816  EF0F  F01C         	goto	u2640
  3422  00381A                     u2641:
  3423  00381A  EF26  F01C         	goto	l3525
  3424  00381E                     u2640:
  3425  00381E  C527  F51C         	movff	___flmul@prod,??___flmul
  3426  003822  C528  F51D         	movff	___flmul@prod+1,??___flmul+1
  3427  003826  C529  F51E         	movff	___flmul@prod+2,??___flmul+2
  3428  00382A  C52A  F51F         	movff	___flmul@prod+3,??___flmul+3
  3429  00382E  341F               	rlcf	(??___flmul+3)^(0+1280),w,c
  3430  003830  321F               	rrcf	(??___flmul+3)^(0+1280),f,c
  3431  003832  321E               	rrcf	(??___flmul+2)^(0+1280),f,c
  3432  003834  321D               	rrcf	(??___flmul+1)^(0+1280),f,c
  3433  003836  321C               	rrcf	??___flmul^(0+1280),f,c
  3434  003838  C51C  F527         	movff	??___flmul,___flmul@prod
  3435  00383C  C51D  F528         	movff	??___flmul+1,___flmul@prod+1
  3436  003840  C51E  F529         	movff	??___flmul+2,___flmul@prod+2
  3437  003844  C51F  F52A         	movff	??___flmul+3,___flmul@prod+3
  3438  003848  4A2B               	infsnz	___flmul@temp^(0+1280),f,c
  3439  00384A  2A2C               	incf	(___flmul@temp+1)^(0+1280),f,c
  3440  00384C                     l3525:
  3441  00384C  BE2C               	btfsc	(___flmul@temp+1)^(0+1280),7,c
  3442  00384E  EF31  F01C         	goto	u2651
  3443  003852  502C               	movf	(___flmul@temp+1)^(0+1280),w,c
  3444  003854  E108               	bnz	u2650
  3445  003856  282B               	incf	___flmul@temp^(0+1280),w,c
  3446  003858  A0D8               	btfss	status,0,c
  3447  00385A  EF31  F01C         	goto	u2651
  3448  00385E  EF33  F01C         	goto	u2650
  3449  003862                     u2651:
  3450  003862  EF3D  F01C         	goto	l3529
  3451  003866                     u2650:
  3452  003866  0E00               	movlw	0
  3453  003868  6E27               	movwf	___flmul@prod^(0+1280),c
  3454  00386A  0E00               	movlw	0
  3455  00386C  6E28               	movwf	(___flmul@prod+1)^(0+1280),c
  3456  00386E  0E80               	movlw	128
  3457  003870  6E29               	movwf	(___flmul@prod+2)^(0+1280),c
  3458  003872  0E7F               	movlw	127
  3459  003874  6E2A               	movwf	(___flmul@prod+3)^(0+1280),c
  3460  003876  EF6B  F01C         	goto	l3541
  3461  00387A                     l3529:
  3462  00387A  BE2C               	btfsc	(___flmul@temp+1)^(0+1280),7,c
  3463  00387C  EF4A  F01C         	goto	u2660
  3464  003880  502C               	movf	(___flmul@temp+1)^(0+1280),w,c
  3465  003882  E106               	bnz	u2661
  3466  003884  042B               	decf	___flmul@temp^(0+1280),w,c
  3467  003886  B0D8               	btfsc	status,0,c
  3468  003888  EF48  F01C         	goto	u2661
  3469  00388C  EF4A  F01C         	goto	u2660
  3470  003890                     u2661:
  3471  003890  EF56  F01C         	goto	l1179
  3472  003894                     u2660:
  3473  003894  0E00               	movlw	0
  3474  003896  6E27               	movwf	___flmul@prod^(0+1280),c
  3475  003898  0E00               	movlw	0
  3476  00389A  6E28               	movwf	(___flmul@prod+1)^(0+1280),c
  3477  00389C  0E00               	movlw	0
  3478  00389E  6E29               	movwf	(___flmul@prod+2)^(0+1280),c
  3479  0038A0  0E00               	movlw	0
  3480  0038A2  6E2A               	movwf	(___flmul@prod+3)^(0+1280),c
  3481  0038A4  0E00               	movlw	0
  3482  0038A6  6E20               	movwf	___flmul@sign^(0+1280),c
  3483  0038A8  EF6B  F01C         	goto	l3541
  3484  0038AC                     l1179:
  3485  0038AC  C52B  F526         	movff	___flmul@temp,___flmul@bexp
  3486  0038B0  0EFF               	movlw	255
  3487  0038B2  1627               	andwf	___flmul@prod^(0+1280),f,c
  3488  0038B4  0EFF               	movlw	255
  3489  0038B6  1628               	andwf	(___flmul@prod+1)^(0+1280),f,c
  3490  0038B8  0E7F               	movlw	127
  3491  0038BA  1629               	andwf	(___flmul@prod+2)^(0+1280),f,c
  3492  0038BC  0E00               	movlw	0
  3493  0038BE  162A               	andwf	(___flmul@prod+3)^(0+1280),f,c
  3494  0038C0  A026               	btfss	___flmul@bexp^(0+1280),0,c
  3495  0038C2  EF65  F01C         	goto	u2671
  3496  0038C6  EF67  F01C         	goto	u2670
  3497  0038CA                     u2671:
  3498  0038CA  EF68  F01C         	goto	l3539
  3499  0038CE                     u2670:
  3500  0038CE  8E29               	bsf	(___flmul@prod+2)^(0+1280),7,c
  3501  0038D0                     l3539:
  3502  0038D0  90D8               	bcf	status,0,c
  3503  0038D2  3026               	rrcf	___flmul@bexp^(0+1280),w,c
  3504  0038D4  6E2A               	movwf	(___flmul@prod+3)^(0+1280),c
  3505  0038D6                     l3541:
  3506  0038D6  5020               	movf	___flmul@sign^(0+1280),w,c
  3507  0038D8  122A               	iorwf	(___flmul@prod+3)^(0+1280),f,c
  3508  0038DA  C527  F514         	movff	___flmul@prod,?___flmul
  3509  0038DE  C528  F515         	movff	___flmul@prod+1,?___flmul+1
  3510  0038E2  C529  F516         	movff	___flmul@prod+2,?___flmul+2
  3511  0038E6  C52A  F517         	movff	___flmul@prod+3,?___flmul+3
  3512  0038EA                     l1166:
  3513  0038EA  0012               	return		;funcret
  3514  0038EC                     __end_of___flmul:
  3515                           	callstack 0
  3516                           
  3517 ;; *************** function ___fladd *****************
  3518 ;; Defined at:
  3519 ;;		line 10 in file "C:\Program Files\Microchip\xc8\v2.36\pic\sources\c99\common\sprcadd.c"
  3520 ;; Parameters:    Size  Location     Type
  3521 ;;  b               4   44[COMRAM] unsigned char 
  3522 ;;  a               4   48[COMRAM] unsigned char 
  3523 ;; Auto vars:     Size  Location     Type
  3524 ;;  grs             1   59[COMRAM] unsigned char 
  3525 ;;  bexp            1   58[COMRAM] unsigned char 
  3526 ;;  aexp            1   57[COMRAM] unsigned char 
  3527 ;;  signs           1   56[COMRAM] unsigned char 
  3528 ;; Return value:  Size  Location     Type
  3529 ;;                  4   44[COMRAM] unsigned char 
  3530 ;; Registers used:
  3531 ;;		wreg, status,2, status,0
  3532 ;; Tracked objects:
  3533 ;;		On entry : 0/0
  3534 ;;		On exit  : 0/0
  3535 ;;		Unchanged: 0/0
  3536 ;; Data sizes:     COMRAM   BANK5   BANK6   BANK7   BANK8   BANK9  BANK10  BANK11  BANK12  BANK13  BANK14  BANK15  BANK1
      +6  BANK17  BANK18  BANK19  BANK20  BANK21  BANK22  BANK23  BANK24  BANK25  BANK26  BANK27  BANK28  BANK29  BANK30  BANK3
      +1  BANK32  BANK33  BANK34  BANK35  BANK36
  3537 ;;      Params:         8       0       0       0       0       0       0       0       0       0       0       0       
      +0       0       0       0       0       0       0       0       0       0       0       0       0       0       0       
      +0       0       0       0       0       0
  3538 ;;      Locals:         4       0       0       0       0       0       0       0       0       0       0       0       
      +0       0       0       0       0       0       0       0       0       0       0       0       0       0       0       
      +0       0       0       0       0       0
  3539 ;;      Temps:          4       0       0       0       0       0       0       0       0       0       0       0       
      +0       0       0       0       0       0       0       0       0       0       0       0       0       0       0       
      +0       0       0       0       0       0
  3540 ;;      Totals:        16       0       0       0       0       0       0       0       0       0       0       0       
      +0       0       0       0       0       0       0       0       0       0       0       0       0       0       0       
      +0       0       0       0       0       0
  3541 ;;Total ram usage:       16 bytes
  3542 ;; Hardware stack levels used: 1
  3543 ;; Hardware stack levels required when called: 6
  3544 ;; This function calls:
  3545 ;;		Nothing
  3546 ;; This function is called by:
  3547 ;;		_main
  3548 ;;		___flsub
  3549 ;;		_sinf
  3550 ;;		___cosdf
  3551 ;;		___rem_pio2f
  3552 ;;		___sindf
  3553 ;; This function uses a non-reentrant model
  3554 ;;
  3555                           
  3556                           	psect	text11
  3557  002FDE                     __ptext11:
  3558                           	callstack 0
  3559  002FDE                     ___fladd:
  3560                           	callstack 118
  3561  002FDE  5030               	movf	(___fladd@b+3)^(0+1280),w,c
  3562  002FE0  0B80               	andlw	128
  3563  002FE2  6E39               	movwf	___fladd@signs^(0+1280),c
  3564  002FE4  5030               	movf	(___fladd@b+3)^(0+1280),w,c
  3565  002FE6  2430               	addwf	(___fladd@b+3)^(0+1280),w,c
  3566  002FE8  6E3B               	movwf	___fladd@bexp^(0+1280),c
  3567  002FEA  AE2F               	btfss	(___fladd@b+2)^(0+1280),7,c
  3568  002FEC  EFFA  F017         	goto	u2101
  3569  002FF0  EFFC  F017         	goto	u2100
  3570  002FF4                     u2101:
  3571  002FF4  EFFD  F017         	goto	l3221
  3572  002FF8                     u2100:
  3573  002FF8  803B               	bsf	___fladd@bexp^(0+1280),0,c
  3574  002FFA                     l3221:
  3575  002FFA  503B               	movf	___fladd@bexp^(0+1280),w,c
  3576  002FFC  B4D8               	btfsc	status,2,c
  3577  002FFE  EF03  F018         	goto	u2111
  3578  003002  EF05  F018         	goto	u2110
  3579  003006                     u2111:
  3580  003006  EF1A  F018         	goto	l3231
  3581  00300A                     u2110:
  3582  00300A  283B               	incf	___fladd@bexp^(0+1280),w,c
  3583  00300C  A4D8               	btfss	status,2,c
  3584  00300E  EF0B  F018         	goto	u2121
  3585  003012  EF0D  F018         	goto	u2120
  3586  003016                     u2121:
  3587  003016  EF15  F018         	goto	l3227
  3588  00301A                     u2120:
  3589  00301A  0E00               	movlw	0
  3590  00301C  6E2D               	movwf	___fladd@b^(0+1280),c
  3591  00301E  0E00               	movlw	0
  3592  003020  6E2E               	movwf	(___fladd@b+1)^(0+1280),c
  3593  003022  0E00               	movlw	0
  3594  003024  6E2F               	movwf	(___fladd@b+2)^(0+1280),c
  3595  003026  0E00               	movlw	0
  3596  003028  6E30               	movwf	(___fladd@b+3)^(0+1280),c
  3597  00302A                     l3227:
  3598  00302A  8E2F               	bsf	(___fladd@b+2)^(0+1280),7,c
  3599  00302C  0E00               	movlw	0
  3600  00302E  6E30               	movwf	(___fladd@b+3)^(0+1280),c
  3601  003030  EF22  F018         	goto	l3233
  3602  003034                     l3231:
  3603  003034  0E00               	movlw	0
  3604  003036  6E2D               	movwf	___fladd@b^(0+1280),c
  3605  003038  0E00               	movlw	0
  3606  00303A  6E2E               	movwf	(___fladd@b+1)^(0+1280),c
  3607  00303C  0E00               	movlw	0
  3608  00303E  6E2F               	movwf	(___fladd@b+2)^(0+1280),c
  3609  003040  0E00               	movlw	0
  3610  003042  6E30               	movwf	(___fladd@b+3)^(0+1280),c
  3611  003044                     l3233:
  3612  003044  5034               	movf	(___fladd@a+3)^(0+1280),w,c
  3613  003046  0B80               	andlw	128
  3614  003048  6E3A               	movwf	___fladd@aexp^(0+1280),c
  3615  00304A  5039               	movf	___fladd@signs^(0+1280),w,c
  3616  00304C  183A               	xorwf	___fladd@aexp^(0+1280),w,c
  3617  00304E  B4D8               	btfsc	status,2,c
  3618  003050  EF2C  F018         	goto	u2131
  3619  003054  EF2E  F018         	goto	u2130
  3620  003058                     u2131:
  3621  003058  EF2F  F018         	goto	l3239
  3622  00305C                     u2130:
  3623  00305C  8C39               	bsf	___fladd@signs^(0+1280),6,c
  3624  00305E                     l3239:
  3625  00305E  5034               	movf	(___fladd@a+3)^(0+1280),w,c
  3626  003060  2434               	addwf	(___fladd@a+3)^(0+1280),w,c
  3627  003062  6E3A               	movwf	___fladd@aexp^(0+1280),c
  3628  003064  AE33               	btfss	(___fladd@a+2)^(0+1280),7,c
  3629  003066  EF37  F018         	goto	u2141
  3630  00306A  EF39  F018         	goto	u2140
  3631  00306E                     u2141:
  3632  00306E  EF3A  F018         	goto	l3245
  3633  003072                     u2140:
  3634  003072  803A               	bsf	___fladd@aexp^(0+1280),0,c
  3635  003074                     l3245:
  3636  003074  503A               	movf	___fladd@aexp^(0+1280),w,c
  3637  003076  B4D8               	btfsc	status,2,c
  3638  003078  EF40  F018         	goto	u2151
  3639  00307C  EF42  F018         	goto	u2150
  3640  003080                     u2151:
  3641  003080  EF57  F018         	goto	l3255
  3642  003084                     u2150:
  3643  003084  283A               	incf	___fladd@aexp^(0+1280),w,c
  3644  003086  A4D8               	btfss	status,2,c
  3645  003088  EF48  F018         	goto	u2161
  3646  00308C  EF4A  F018         	goto	u2160
  3647  003090                     u2161:
  3648  003090  EF52  F018         	goto	l3251
  3649  003094                     u2160:
  3650  003094  0E00               	movlw	0
  3651  003096  6E31               	movwf	___fladd@a^(0+1280),c
  3652  003098  0E00               	movlw	0
  3653  00309A  6E32               	movwf	(___fladd@a+1)^(0+1280),c
  3654  00309C  0E00               	movlw	0
  3655  00309E  6E33               	movwf	(___fladd@a+2)^(0+1280),c
  3656  0030A0  0E00               	movlw	0
  3657  0030A2  6E34               	movwf	(___fladd@a+3)^(0+1280),c
  3658  0030A4                     l3251:
  3659  0030A4  8E33               	bsf	(___fladd@a+2)^(0+1280),7,c
  3660  0030A6  0E00               	movlw	0
  3661  0030A8  6E34               	movwf	(___fladd@a+3)^(0+1280),c
  3662  0030AA  EF5F  F018         	goto	l3257
  3663  0030AE                     l3255:
  3664  0030AE  0E00               	movlw	0
  3665  0030B0  6E31               	movwf	___fladd@a^(0+1280),c
  3666  0030B2  0E00               	movlw	0
  3667  0030B4  6E32               	movwf	(___fladd@a+1)^(0+1280),c
  3668  0030B6  0E00               	movlw	0
  3669  0030B8  6E33               	movwf	(___fladd@a+2)^(0+1280),c
  3670  0030BA  0E00               	movlw	0
  3671  0030BC  6E34               	movwf	(___fladd@a+3)^(0+1280),c
  3672  0030BE                     l3257:
  3673  0030BE  503B               	movf	___fladd@bexp^(0+1280),w,c
  3674  0030C0  5C3A               	subwf	___fladd@aexp^(0+1280),w,c
  3675  0030C2  B0D8               	btfsc	status,0,c
  3676  0030C4  EF66  F018         	goto	u2171
  3677  0030C8  EF68  F018         	goto	u2170
  3678  0030CC                     u2171:
  3679  0030CC  EF8F  F018         	goto	l3293
  3680  0030D0                     u2170:
  3681  0030D0  AC39               	btfss	___fladd@signs^(0+1280),6,c
  3682  0030D2  EF6D  F018         	goto	u2181
  3683  0030D6  EF6F  F018         	goto	u2180
  3684  0030DA                     u2181:
  3685  0030DA  EF71  F018         	goto	l3263
  3686  0030DE                     u2180:
  3687  0030DE  0E80               	movlw	128
  3688  0030E0  1A39               	xorwf	___fladd@signs^(0+1280),f,c
  3689  0030E2                     l3263:
  3690  0030E2  C53B  F53C         	movff	___fladd@bexp,___fladd@grs
  3691  0030E6  C53A  F53B         	movff	___fladd@aexp,___fladd@bexp
  3692  0030EA  C53C  F53A         	movff	___fladd@grs,___fladd@aexp
  3693  0030EE  C52D  F53C         	movff	___fladd@b,___fladd@grs
  3694  0030F2  C531  F52D         	movff	___fladd@a,___fladd@b
  3695  0030F6  C53C  F531         	movff	___fladd@grs,___fladd@a
  3696  0030FA  C52E  F53C         	movff	___fladd@b+1,___fladd@grs
  3697  0030FE  C532  F52E         	movff	___fladd@a+1,___fladd@b+1
  3698  003102  C53C  F532         	movff	___fladd@grs,___fladd@a+1
  3699  003106  C52F  F53C         	movff	___fladd@b+2,___fladd@grs
  3700  00310A  C533  F52F         	movff	___fladd@a+2,___fladd@b+2
  3701  00310E  C53C  F533         	movff	___fladd@grs,___fladd@a+2
  3702  003112  C530  F53C         	movff	___fladd@b+3,___fladd@grs
  3703  003116  C534  F530         	movff	___fladd@a+3,___fladd@b+3
  3704  00311A  C53C  F534         	movff	___fladd@grs,___fladd@a+3
  3705  00311E                     l3293:
  3706  00311E  0E00               	movlw	0
  3707  003120  6E3C               	movwf	___fladd@grs^(0+1280),c
  3708  003122  503B               	movf	___fladd@bexp^(0+1280),w,c
  3709  003124  C53A  F535         	movff	___fladd@aexp,??___fladd
  3710  003128  6A36               	clrf	(??___fladd+1)^(0+1280),c
  3711  00312A  5E35               	subwf	??___fladd^(0+1280),f,c
  3712  00312C  0E00               	movlw	0
  3713  00312E  5A36               	subwfb	(??___fladd+1)^(0+1280),f,c
  3714  003130  BE36               	btfsc	(??___fladd+1)^(0+1280),7,c
  3715  003132  EFA4  F018         	goto	u2191
  3716  003136  5036               	movf	(??___fladd+1)^(0+1280),w,c
  3717  003138  E109               	bnz	u2190
  3718  00313A  0E1A               	movlw	26
  3719  00313C  5C35               	subwf	??___fladd^(0+1280),w,c
  3720  00313E  A0D8               	btfss	status,0,c
  3721  003140  EFA4  F018         	goto	u2191
  3722  003144  EFA6  F018         	goto	u2190
  3723  003148                     u2191:
  3724  003148  EFDD  F018         	goto	l1077
  3725  00314C                     u2190:
  3726  00314C  502D               	movf	___fladd@b^(0+1280),w,c
  3727  00314E  102E               	iorwf	(___fladd@b+1)^(0+1280),w,c
  3728  003150  102F               	iorwf	(___fladd@b+2)^(0+1280),w,c
  3729  003152  1030               	iorwf	(___fladd@b+3)^(0+1280),w,c
  3730  003154  A4D8               	btfss	status,2,c
  3731  003156  EFAF  F018         	goto	u2201
  3732  00315A  EFB2  F018         	goto	u2200
  3733  00315E                     u2201:
  3734  00315E  0E01               	movlw	1
  3735  003160  EFB3  F018         	goto	u2210
  3736  003164                     u2200:
  3737  003164  0E00               	movlw	0
  3738  003166                     u2210:
  3739  003166  6E3C               	movwf	___fladd@grs^(0+1280),c
  3740  003168  0E00               	movlw	0
  3741  00316A  6E2D               	movwf	___fladd@b^(0+1280),c
  3742  00316C  0E00               	movlw	0
  3743  00316E  6E2E               	movwf	(___fladd@b+1)^(0+1280),c
  3744  003170  0E00               	movlw	0
  3745  003172  6E2F               	movwf	(___fladd@b+2)^(0+1280),c
  3746  003174  0E00               	movlw	0
  3747  003176  6E30               	movwf	(___fladd@b+3)^(0+1280),c
  3748  003178  C53A  F53B         	movff	___fladd@aexp,___fladd@bexp
  3749  00317C  EFE6  F018         	goto	l1076
  3750  003180                     l1078:
  3751  003180  A03C               	btfss	___fladd@grs^(0+1280),0,c
  3752  003182  EFC5  F018         	goto	u2221
  3753  003186  EFC7  F018         	goto	u2220
  3754  00318A                     u2221:
  3755  00318A  EFCD  F018         	goto	l3305
  3756  00318E                     u2220:
  3757  00318E  90D8               	bcf	status,0,c
  3758  003190  303C               	rrcf	___fladd@grs^(0+1280),w,c
  3759  003192  0901               	iorlw	1
  3760  003194  6E3C               	movwf	___fladd@grs^(0+1280),c
  3761  003196  EFCF  F018         	goto	l3307
  3762  00319A                     l3305:
  3763  00319A  90D8               	bcf	status,0,c
  3764  00319C  323C               	rrcf	___fladd@grs^(0+1280),f,c
  3765  00319E                     l3307:
  3766  00319E  A02D               	btfss	___fladd@b^(0+1280),0,c
  3767  0031A0  EFD4  F018         	goto	u2231
  3768  0031A4  EFD6  F018         	goto	u2230
  3769  0031A8                     u2231:
  3770  0031A8  EFD7  F018         	goto	l3311
  3771  0031AC                     u2230:
  3772  0031AC  8E3C               	bsf	___fladd@grs^(0+1280),7,c
  3773  0031AE                     l3311:
  3774  0031AE  3430               	rlcf	(___fladd@b+3)^(0+1280),w,c
  3775  0031B0  3230               	rrcf	(___fladd@b+3)^(0+1280),f,c
  3776  0031B2  322F               	rrcf	(___fladd@b+2)^(0+1280),f,c
  3777  0031B4  322E               	rrcf	(___fladd@b+1)^(0+1280),f,c
  3778  0031B6  322D               	rrcf	___fladd@b^(0+1280),f,c
  3779  0031B8  2A3B               	incf	___fladd@bexp^(0+1280),f,c
  3780  0031BA                     l1077:
  3781  0031BA  503A               	movf	___fladd@aexp^(0+1280),w,c
  3782  0031BC  5C3B               	subwf	___fladd@bexp^(0+1280),w,c
  3783  0031BE  A0D8               	btfss	status,0,c
  3784  0031C0  EFE4  F018         	goto	u2241
  3785  0031C4  EFE6  F018         	goto	u2240
  3786  0031C8                     u2241:
  3787  0031C8  EFC0  F018         	goto	l1078
  3788  0031CC                     u2240:
  3789  0031CC                     l1076:
  3790  0031CC  BC39               	btfsc	___fladd@signs^(0+1280),6,c
  3791  0031CE  EFEB  F018         	goto	u2251
  3792  0031D2  EFED  F018         	goto	u2250
  3793  0031D6                     u2251:
  3794  0031D6  EF2D  F019         	goto	l3339
  3795  0031DA                     u2250:
  3796  0031DA  503B               	movf	___fladd@bexp^(0+1280),w,c
  3797  0031DC  A4D8               	btfss	status,2,c
  3798  0031DE  EFF3  F018         	goto	u2261
  3799  0031E2  EFF5  F018         	goto	u2260
  3800  0031E6                     u2261:
  3801  0031E6  EFFF  F018         	goto	l3321
  3802  0031EA                     u2260:
  3803  0031EA  0E00               	movlw	0
  3804  0031EC  6E2D               	movwf	?___fladd^(0+1280),c
  3805  0031EE  0E00               	movlw	0
  3806  0031F0  6E2E               	movwf	(?___fladd+1)^(0+1280),c
  3807  0031F2  0E00               	movlw	0
  3808  0031F4  6E2F               	movwf	(?___fladd+2)^(0+1280),c
  3809  0031F6  0E00               	movlw	0
  3810  0031F8  6E30               	movwf	(?___fladd+3)^(0+1280),c
  3811  0031FA  EF4E  F01A         	goto	l1085
  3812  0031FE                     l3321:
  3813  0031FE  5031               	movf	___fladd@a^(0+1280),w,c
  3814  003200  262D               	addwf	___fladd@b^(0+1280),f,c
  3815  003202  5032               	movf	(___fladd@a+1)^(0+1280),w,c
  3816  003204  222E               	addwfc	(___fladd@b+1)^(0+1280),f,c
  3817  003206  5033               	movf	(___fladd@a+2)^(0+1280),w,c
  3818  003208  222F               	addwfc	(___fladd@b+2)^(0+1280),f,c
  3819  00320A  5034               	movf	(___fladd@a+3)^(0+1280),w,c
  3820  00320C  2230               	addwfc	(___fladd@b+3)^(0+1280),f,c
  3821  00320E  A030               	btfss	(___fladd@b+3)^(0+1280),0,c
  3822  003210  EF0C  F019         	goto	u2271
  3823  003214  EF0E  F019         	goto	u2270
  3824  003218                     u2271:
  3825  003218  EFBA  F019         	goto	l3375
  3826  00321C                     u2270:
  3827  00321C  A03C               	btfss	___fladd@grs^(0+1280),0,c
  3828  00321E  EF13  F019         	goto	u2281
  3829  003222  EF15  F019         	goto	u2280
  3830  003226                     u2281:
  3831  003226  EF1B  F019         	goto	l3329
  3832  00322A                     u2280:
  3833  00322A  90D8               	bcf	status,0,c
  3834  00322C  303C               	rrcf	___fladd@grs^(0+1280),w,c
  3835  00322E  0901               	iorlw	1
  3836  003230  6E3C               	movwf	___fladd@grs^(0+1280),c
  3837  003232  EF1D  F019         	goto	l3331
  3838  003236                     l3329:
  3839  003236  90D8               	bcf	status,0,c
  3840  003238  323C               	rrcf	___fladd@grs^(0+1280),f,c
  3841  00323A                     l3331:
  3842  00323A  A02D               	btfss	___fladd@b^(0+1280),0,c
  3843  00323C  EF22  F019         	goto	u2291
  3844  003240  EF24  F019         	goto	u2290
  3845  003244                     u2291:
  3846  003244  EF25  F019         	goto	l3335
  3847  003248                     u2290:
  3848  003248  8E3C               	bsf	___fladd@grs^(0+1280),7,c
  3849  00324A                     l3335:
  3850  00324A  3430               	rlcf	(___fladd@b+3)^(0+1280),w,c
  3851  00324C  3230               	rrcf	(___fladd@b+3)^(0+1280),f,c
  3852  00324E  322F               	rrcf	(___fladd@b+2)^(0+1280),f,c
  3853  003250  322E               	rrcf	(___fladd@b+1)^(0+1280),f,c
  3854  003252  322D               	rrcf	___fladd@b^(0+1280),f,c
  3855  003254  2A3B               	incf	___fladd@bexp^(0+1280),f,c
  3856  003256  EFBA  F019         	goto	l3375
  3857  00325A                     l3339:
  3858  00325A  5031               	movf	___fladd@a^(0+1280),w,c
  3859  00325C  5C2D               	subwf	___fladd@b^(0+1280),w,c
  3860  00325E  5032               	movf	(___fladd@a+1)^(0+1280),w,c
  3861  003260  582E               	subwfb	(___fladd@b+1)^(0+1280),w,c
  3862  003262  5033               	movf	(___fladd@a+2)^(0+1280),w,c
  3863  003264  582F               	subwfb	(___fladd@b+2)^(0+1280),w,c
  3864  003266  5030               	movf	(___fladd@b+3)^(0+1280),w,c
  3865  003268  0A80               	xorlw	128
  3866  00326A  6E35               	movwf	??___fladd^(0+1280),c
  3867  00326C  5034               	movf	(___fladd@a+3)^(0+1280),w,c
  3868  00326E  0A80               	xorlw	128
  3869  003270  5835               	subwfb	??___fladd^(0+1280),w,c
  3870  003272  B0D8               	btfsc	status,0,c
  3871  003274  EF3E  F019         	goto	u2301
  3872  003278  EF40  F019         	goto	u2300
  3873  00327C                     u2301:
  3874  00327C  EF6B  F019         	goto	l3349
  3875  003280                     u2300:
  3876  003280  502D               	movf	___fladd@b^(0+1280),w,c
  3877  003282  5C31               	subwf	___fladd@a^(0+1280),w,c
  3878  003284  6E35               	movwf	??___fladd^(0+1280),c
  3879  003286  502E               	movf	(___fladd@b+1)^(0+1280),w,c
  3880  003288  5832               	subwfb	(___fladd@a+1)^(0+1280),w,c
  3881  00328A  6E36               	movwf	(??___fladd+1)^(0+1280),c
  3882  00328C  502F               	movf	(___fladd@b+2)^(0+1280),w,c
  3883  00328E  5833               	subwfb	(___fladd@a+2)^(0+1280),w,c
  3884  003290  6E37               	movwf	(??___fladd+2)^(0+1280),c
  3885  003292  5030               	movf	(___fladd@b+3)^(0+1280),w,c
  3886  003294  5834               	subwfb	(___fladd@a+3)^(0+1280),w,c
  3887  003296  6E38               	movwf	(??___fladd+3)^(0+1280),c
  3888  003298  0EFF               	movlw	255
  3889  00329A  2435               	addwf	??___fladd^(0+1280),w,c
  3890  00329C  6E2D               	movwf	___fladd@b^(0+1280),c
  3891  00329E  0EFF               	movlw	255
  3892  0032A0  2036               	addwfc	(??___fladd+1)^(0+1280),w,c
  3893  0032A2  6E2E               	movwf	(___fladd@b+1)^(0+1280),c
  3894  0032A4  0EFF               	movlw	255
  3895  0032A6  2037               	addwfc	(??___fladd+2)^(0+1280),w,c
  3896  0032A8  6E2F               	movwf	(___fladd@b+2)^(0+1280),c
  3897  0032AA  0EFF               	movlw	255
  3898  0032AC  2038               	addwfc	(??___fladd+3)^(0+1280),w,c
  3899  0032AE  6E30               	movwf	(___fladd@b+3)^(0+1280),c
  3900  0032B0  0E80               	movlw	128
  3901  0032B2  1A39               	xorwf	___fladd@signs^(0+1280),f,c
  3902  0032B4  6C3C               	negf	___fladd@grs^(0+1280),c
  3903  0032B6  503C               	movf	___fladd@grs^(0+1280),w,c
  3904  0032B8  A4D8               	btfss	status,2,c
  3905  0032BA  EF61  F019         	goto	u2311
  3906  0032BE  EF63  F019         	goto	u2310
  3907  0032C2                     u2311:
  3908  0032C2  EF73  F019         	goto	l1093
  3909  0032C6                     u2310:
  3910  0032C6  0E01               	movlw	1
  3911  0032C8  262D               	addwf	___fladd@b^(0+1280),f,c
  3912  0032CA  0E00               	movlw	0
  3913  0032CC  222E               	addwfc	(___fladd@b+1)^(0+1280),f,c
  3914  0032CE  222F               	addwfc	(___fladd@b+2)^(0+1280),f,c
  3915  0032D0  2230               	addwfc	(___fladd@b+3)^(0+1280),f,c
  3916  0032D2  EF73  F019         	goto	l1093
  3917  0032D6                     l3349:
  3918  0032D6  5031               	movf	___fladd@a^(0+1280),w,c
  3919  0032D8  5E2D               	subwf	___fladd@b^(0+1280),f,c
  3920  0032DA  5032               	movf	(___fladd@a+1)^(0+1280),w,c
  3921  0032DC  5A2E               	subwfb	(___fladd@b+1)^(0+1280),f,c
  3922  0032DE  5033               	movf	(___fladd@a+2)^(0+1280),w,c
  3923  0032E0  5A2F               	subwfb	(___fladd@b+2)^(0+1280),f,c
  3924  0032E2  5034               	movf	(___fladd@a+3)^(0+1280),w,c
  3925  0032E4  5A30               	subwfb	(___fladd@b+3)^(0+1280),f,c
  3926  0032E6                     l1093:
  3927  0032E6  502D               	movf	___fladd@b^(0+1280),w,c
  3928  0032E8  102E               	iorwf	(___fladd@b+1)^(0+1280),w,c
  3929  0032EA  102F               	iorwf	(___fladd@b+2)^(0+1280),w,c
  3930  0032EC  1030               	iorwf	(___fladd@b+3)^(0+1280),w,c
  3931  0032EE  A4D8               	btfss	status,2,c
  3932  0032F0  EF7C  F019         	goto	u2321
  3933  0032F4  EF7E  F019         	goto	u2320
  3934  0032F8                     u2321:
  3935  0032F8  EFB3  F019         	goto	l3373
  3936  0032FC                     u2320:
  3937  0032FC  503C               	movf	___fladd@grs^(0+1280),w,c
  3938  0032FE  A4D8               	btfss	status,2,c
  3939  003300  EF84  F019         	goto	u2331
  3940  003304  EF86  F019         	goto	u2330
  3941  003308                     u2331:
  3942  003308  EFB3  F019         	goto	l3373
  3943  00330C                     u2330:
  3944  00330C  0E00               	movlw	0
  3945  00330E  6E2D               	movwf	?___fladd^(0+1280),c
  3946  003310  0E00               	movlw	0
  3947  003312  6E2E               	movwf	(?___fladd+1)^(0+1280),c
  3948  003314  0E00               	movlw	0
  3949  003316  6E2F               	movwf	(?___fladd+2)^(0+1280),c
  3950  003318  0E00               	movlw	0
  3951  00331A  6E30               	movwf	(?___fladd+3)^(0+1280),c
  3952  00331C  EF4E  F01A         	goto	l1085
  3953  003320                     l3357:
  3954  003320  90D8               	bcf	status,0,c
  3955  003322  362D               	rlcf	___fladd@b^(0+1280),f,c
  3956  003324  362E               	rlcf	(___fladd@b+1)^(0+1280),f,c
  3957  003326  362F               	rlcf	(___fladd@b+2)^(0+1280),f,c
  3958  003328  3630               	rlcf	(___fladd@b+3)^(0+1280),f,c
  3959  00332A  AE3C               	btfss	___fladd@grs^(0+1280),7,c
  3960  00332C  EF9A  F019         	goto	u2341
  3961  003330  EF9C  F019         	goto	u2340
  3962  003334                     u2341:
  3963  003334  EF9D  F019         	goto	l3363
  3964  003338                     u2340:
  3965  003338  802D               	bsf	___fladd@b^(0+1280),0,c
  3966  00333A                     l3363:
  3967  00333A  A03C               	btfss	___fladd@grs^(0+1280),0,c
  3968  00333C  EFA2  F019         	goto	u2351
  3969  003340  EFA4  F019         	goto	u2350
  3970  003344                     u2351:
  3971  003344  EFA8  F019         	goto	l3367
  3972  003348                     u2350:
  3973  003348  80D8               	bsf	status,0,c
  3974  00334A  363C               	rlcf	___fladd@grs^(0+1280),f,c
  3975  00334C  EFAA  F019         	goto	l3369
  3976  003350                     l3367:
  3977  003350  90D8               	bcf	status,0,c
  3978  003352  363C               	rlcf	___fladd@grs^(0+1280),f,c
  3979  003354                     l3369:
  3980  003354  503B               	movf	___fladd@bexp^(0+1280),w,c
  3981  003356  B4D8               	btfsc	status,2,c
  3982  003358  EFB0  F019         	goto	u2361
  3983  00335C  EFB2  F019         	goto	u2360
  3984  003360                     u2361:
  3985  003360  EFB3  F019         	goto	l3373
  3986  003364                     u2360:
  3987  003364  063B               	decf	___fladd@bexp^(0+1280),f,c
  3988  003366                     l3373:
  3989  003366  AE2F               	btfss	(___fladd@b+2)^(0+1280),7,c
  3990  003368  EFB8  F019         	goto	u2371
  3991  00336C  EFBA  F019         	goto	u2370
  3992  003370                     u2371:
  3993  003370  EF90  F019         	goto	l3357
  3994  003374                     u2370:
  3995  003374                     l3375:
  3996  003374  0E00               	movlw	0
  3997  003376  6E3A               	movwf	___fladd@aexp^(0+1280),c
  3998  003378  AE3C               	btfss	___fladd@grs^(0+1280),7,c
  3999  00337A  EFC1  F019         	goto	u2381
  4000  00337E  EFC3  F019         	goto	u2380
  4001  003382                     u2381:
  4002  003382  EFDB  F019         	goto	l1102
  4003  003386                     u2380:
  4004  003386  C53C  F535         	movff	___fladd@grs,??___fladd
  4005  00338A  0E7F               	movlw	127
  4006  00338C  1635               	andwf	??___fladd^(0+1280),f,c
  4007  00338E  B4D8               	btfsc	status,2,c
  4008  003390  EFCC  F019         	goto	u2391
  4009  003394  EFCE  F019         	goto	u2390
  4010  003398                     u2391:
  4011  003398  EFD2  F019         	goto	l1103
  4012  00339C                     u2390:
  4013  00339C                     l3381:
  4014  00339C  0E01               	movlw	1
  4015  00339E  6E3A               	movwf	___fladd@aexp^(0+1280),c
  4016  0033A0  EFDB  F019         	goto	l1102
  4017  0033A4                     l1103:
  4018  0033A4  A02D               	btfss	___fladd@b^(0+1280),0,c
  4019  0033A6  EFD7  F019         	goto	u2401
  4020  0033AA  EFD9  F019         	goto	u2400
  4021  0033AE                     u2401:
  4022  0033AE  EFDB  F019         	goto	l1102
  4023  0033B2                     u2400:
  4024  0033B2  EFCE  F019         	goto	l3381
  4025  0033B6                     l1102:
  4026  0033B6  503A               	movf	___fladd@aexp^(0+1280),w,c
  4027  0033B8  B4D8               	btfsc	status,2,c
  4028  0033BA  EFE1  F019         	goto	u2411
  4029  0033BE  EFE3  F019         	goto	u2410
  4030  0033C2                     u2411:
  4031  0033C2  EF0E  F01A         	goto	l3393
  4032  0033C6                     u2410:
  4033  0033C6  0E01               	movlw	1
  4034  0033C8  262D               	addwf	___fladd@b^(0+1280),f,c
  4035  0033CA  0E00               	movlw	0
  4036  0033CC  222E               	addwfc	(___fladd@b+1)^(0+1280),f,c
  4037  0033CE  222F               	addwfc	(___fladd@b+2)^(0+1280),f,c
  4038  0033D0  2230               	addwfc	(___fladd@b+3)^(0+1280),f,c
  4039  0033D2  A030               	btfss	(___fladd@b+3)^(0+1280),0,c
  4040  0033D4  EFEE  F019         	goto	u2421
  4041  0033D8  EFF0  F019         	goto	u2420
  4042  0033DC                     u2421:
  4043  0033DC  EF0E  F01A         	goto	l3393
  4044  0033E0                     u2420:
  4045  0033E0  C52D  F535         	movff	___fladd@b,??___fladd
  4046  0033E4  C52E  F536         	movff	___fladd@b+1,??___fladd+1
  4047  0033E8  C52F  F537         	movff	___fladd@b+2,??___fladd+2
  4048  0033EC  C530  F538         	movff	___fladd@b+3,??___fladd+3
  4049  0033F0  3438               	rlcf	(??___fladd+3)^(0+1280),w,c
  4050  0033F2  3238               	rrcf	(??___fladd+3)^(0+1280),f,c
  4051  0033F4  3237               	rrcf	(??___fladd+2)^(0+1280),f,c
  4052  0033F6  3236               	rrcf	(??___fladd+1)^(0+1280),f,c
  4053  0033F8  3235               	rrcf	??___fladd^(0+1280),f,c
  4054  0033FA  C535  F52D         	movff	??___fladd,___fladd@b
  4055  0033FE  C536  F52E         	movff	??___fladd+1,___fladd@b+1
  4056  003402  C537  F52F         	movff	??___fladd+2,___fladd@b+2
  4057  003406  C538  F530         	movff	??___fladd+3,___fladd@b+3
  4058  00340A  283B               	incf	___fladd@bexp^(0+1280),w,c
  4059  00340C  B4D8               	btfsc	status,2,c
  4060  00340E  EF0B  F01A         	goto	u2431
  4061  003412  EF0D  F01A         	goto	u2430
  4062  003416                     u2431:
  4063  003416  EF0E  F01A         	goto	l3393
  4064  00341A                     u2430:
  4065  00341A  2A3B               	incf	___fladd@bexp^(0+1280),f,c
  4066  00341C                     l3393:
  4067  00341C  283B               	incf	___fladd@bexp^(0+1280),w,c
  4068  00341E  B4D8               	btfsc	status,2,c
  4069  003420  EF14  F01A         	goto	u2441
  4070  003424  EF16  F01A         	goto	u2440
  4071  003428                     u2441:
  4072  003428  EF1E  F01A         	goto	l3397
  4073  00342C                     u2440:
  4074  00342C  503B               	movf	___fladd@bexp^(0+1280),w,c
  4075  00342E  A4D8               	btfss	status,2,c
  4076  003430  EF1C  F01A         	goto	u2451
  4077  003434  EF1E  F01A         	goto	u2450
  4078  003438                     u2451:
  4079  003438  EF30  F01A         	goto	l3401
  4080  00343C                     u2450:
  4081  00343C                     l3397:
  4082  00343C  0E00               	movlw	0
  4083  00343E  6E2D               	movwf	___fladd@b^(0+1280),c
  4084  003440  0E00               	movlw	0
  4085  003442  6E2E               	movwf	(___fladd@b+1)^(0+1280),c
  4086  003444  0E00               	movlw	0
  4087  003446  6E2F               	movwf	(___fladd@b+2)^(0+1280),c
  4088  003448  0E00               	movlw	0
  4089  00344A  6E30               	movwf	(___fladd@b+3)^(0+1280),c
  4090  00344C  503B               	movf	___fladd@bexp^(0+1280),w,c
  4091  00344E  A4D8               	btfss	status,2,c
  4092  003450  EF2C  F01A         	goto	u2461
  4093  003454  EF2E  F01A         	goto	u2460
  4094  003458                     u2461:
  4095  003458  EF30  F01A         	goto	l3401
  4096  00345C                     u2460:
  4097  00345C  0E00               	movlw	0
  4098  00345E  6E39               	movwf	___fladd@signs^(0+1280),c
  4099  003460                     l3401:
  4100  003460  A03B               	btfss	___fladd@bexp^(0+1280),0,c
  4101  003462  EF35  F01A         	goto	u2471
  4102  003466  EF37  F01A         	goto	u2470
  4103  00346A                     u2471:
  4104  00346A  EF3A  F01A         	goto	l3405
  4105  00346E                     u2470:
  4106  00346E  8E2F               	bsf	(___fladd@b+2)^(0+1280),7,c
  4107  003470  EF3B  F01A         	goto	l3407
  4108  003474                     l3405:
  4109  003474  9E2F               	bcf	(___fladd@b+2)^(0+1280),7,c
  4110  003476                     l3407:
  4111  003476  90D8               	bcf	status,0,c
  4112  003478  303B               	rrcf	___fladd@bexp^(0+1280),w,c
  4113  00347A  6E30               	movwf	(___fladd@b+3)^(0+1280),c
  4114  00347C  AE39               	btfss	___fladd@signs^(0+1280),7,c
  4115  00347E  EF43  F01A         	goto	u2481
  4116  003482  EF45  F01A         	goto	u2480
  4117  003486                     u2481:
  4118  003486  EF46  F01A         	goto	l3413
  4119  00348A                     u2480:
  4120  00348A  8E30               	bsf	(___fladd@b+3)^(0+1280),7,c
  4121  00348C                     l3413:
  4122  00348C  C52D  F52D         	movff	___fladd@b,?___fladd
  4123  003490  C52E  F52E         	movff	___fladd@b+1,?___fladd+1
  4124  003494  C52F  F52F         	movff	___fladd@b+2,?___fladd+2
  4125  003498  C530  F530         	movff	___fladd@b+3,?___fladd+3
  4126  00349C                     l1085:
  4127  00349C  0012               	return		;funcret
  4128  00349E                     __end_of___fladd:
  4129                           	callstack 0
  4130                           
  4131 ;; *************** function _SYSTEM_Initialize *****************
  4132 ;; Defined at:
  4133 ;;		line 50 in file "mcc_generated_files/mcc.c"
  4134 ;; Parameters:    Size  Location     Type
  4135 ;;		None
  4136 ;; Auto vars:     Size  Location     Type
  4137 ;;		None
  4138 ;; Return value:  Size  Location     Type
  4139 ;;                  1    wreg      void 
  4140 ;; Registers used:
  4141 ;;		wreg, status,2, status,0, cstack
  4142 ;; Tracked objects:
  4143 ;;		On entry : 0/0
  4144 ;;		On exit  : 0/0
  4145 ;;		Unchanged: 0/0
  4146 ;; Data sizes:     COMRAM   BANK5   BANK6   BANK7   BANK8   BANK9  BANK10  BANK11  BANK12  BANK13  BANK14  BANK15  BANK1
      +6  BANK17  BANK18  BANK19  BANK20  BANK21  BANK22  BANK23  BANK24  BANK25  BANK26  BANK27  BANK28  BANK29  BANK30  BANK3
      +1  BANK32  BANK33  BANK34  BANK35  BANK36
  4147 ;;      Params:         0       0       0       0       0       0       0       0       0       0       0       0       
      +0       0       0       0       0       0       0       0       0       0       0       0       0       0       0       
      +0       0       0       0       0       0
  4148 ;;      Locals:         0       0       0       0       0       0       0       0       0       0       0       0       
      +0       0       0       0       0       0       0       0       0       0       0       0       0       0       0       
      +0       0       0       0       0       0
  4149 ;;      Temps:          0       0       0       0       0       0       0       0       0       0       0       0       
      +0       0       0       0       0       0       0       0       0       0       0       0       0       0       0       
      +0       0       0       0       0       0
  4150 ;;      Totals:         0       0       0       0       0       0       0       0       0       0       0       0       
      +0       0       0       0       0       0       0       0       0       0       0       0       0       0       0       
      +0       0       0       0       0       0
  4151 ;;Total ram usage:        0 bytes
  4152 ;; Hardware stack levels used: 1
  4153 ;; Hardware stack levels required when called: 8
  4154 ;; This function calls:
  4155 ;;		_ADCC_Initialize
  4156 ;;		_INTERRUPT_Initialize
  4157 ;;		_OSCILLATOR_Initialize
  4158 ;;		_PIN_MANAGER_Initialize
  4159 ;;		_PMD_Initialize
  4160 ;;		_SPI1_Initialize
  4161 ;;		_TMR2_Initialize
  4162 ;; This function is called by:
  4163 ;;		_main
  4164 ;; This function uses a non-reentrant model
  4165 ;;
  4166                           
  4167                           	psect	text12
  4168  004520                     __ptext12:
  4169                           	callstack 0
  4170  004520                     _SYSTEM_Initialize:
  4171                           	callstack 118
  4172  004520                     
  4173                           ;mcc_generated_files/mcc.c: 52:     INTERRUPT_Initialize();
  4174  004520  ECCD  F022         	call	_INTERRUPT_Initialize	;wreg free
  4175  004524                     
  4176                           ;mcc_generated_files/mcc.c: 53:     PMD_Initialize();
  4177  004524  EC5D  F022         	call	_PMD_Initialize	;wreg free
  4178  004528                     
  4179                           ;mcc_generated_files/mcc.c: 54:     PIN_MANAGER_Initialize();
  4180  004528  ECEB  F020         	call	_PIN_MANAGER_Initialize	;wreg free
  4181  00452C                     
  4182                           ;mcc_generated_files/mcc.c: 55:     OSCILLATOR_Initialize();
  4183  00452C  EC9F  F022         	call	_OSCILLATOR_Initialize	;wreg free
  4184  004530                     
  4185                           ;mcc_generated_files/mcc.c: 56:     ADCC_Initialize();
  4186  004530  EC46  F021         	call	_ADCC_Initialize	;wreg free
  4187  004534                     
  4188                           ;mcc_generated_files/mcc.c: 57:     TMR2_Initialize();
  4189  004534  EC2B  F022         	call	_TMR2_Initialize	;wreg free
  4190  004538                     
  4191                           ;mcc_generated_files/mcc.c: 58:     SPI1_Initialize();
  4192  004538  ECAD  F022         	call	_SPI1_Initialize	;wreg free
  4193  00453C  0012               	return		;funcret
  4194  00453E                     __end_of_SYSTEM_Initialize:
  4195                           	callstack 0
  4196                           
  4197 ;; *************** function _TMR2_Initialize *****************
  4198 ;; Defined at:
  4199 ;;		line 64 in file "mcc_generated_files/tmr2.c"
  4200 ;; Parameters:    Size  Location     Type
  4201 ;;		None
  4202 ;; Auto vars:     Size  Location     Type
  4203 ;;		None
  4204 ;; Return value:  Size  Location     Type
  4205 ;;                  1    wreg      void 
  4206 ;; Registers used:
  4207 ;;		wreg, status,2, status,0, cstack
  4208 ;; Tracked objects:
  4209 ;;		On entry : 0/0
  4210 ;;		On exit  : 0/0
  4211 ;;		Unchanged: 0/0
  4212 ;; Data sizes:     COMRAM   BANK5   BANK6   BANK7   BANK8   BANK9  BANK10  BANK11  BANK12  BANK13  BANK14  BANK15  BANK1
      +6  BANK17  BANK18  BANK19  BANK20  BANK21  BANK22  BANK23  BANK24  BANK25  BANK26  BANK27  BANK28  BANK29  BANK30  BANK3
      +1  BANK32  BANK33  BANK34  BANK35  BANK36
  4213 ;;      Params:         0       0       0       0       0       0       0       0       0       0       0       0       
      +0       0       0       0       0       0       0       0       0       0       0       0       0       0       0       
      +0       0       0       0       0       0
  4214 ;;      Locals:         0       0       0       0       0       0       0       0       0       0       0       0       
      +0       0       0       0       0       0       0       0       0       0       0       0       0       0       0       
      +0       0       0       0       0       0
  4215 ;;      Temps:          0       0       0       0       0       0       0       0       0       0       0       0       
      +0       0       0       0       0       0       0       0       0       0       0       0       0       0       0       
      +0       0       0       0       0       0
  4216 ;;      Totals:         0       0       0       0       0       0       0       0       0       0       0       0       
      +0       0       0       0       0       0       0       0       0       0       0       0       0       0       0       
      +0       0       0       0       0       0
  4217 ;;Total ram usage:        0 bytes
  4218 ;; Hardware stack levels used: 1
  4219 ;; Hardware stack levels required when called: 7
  4220 ;; This function calls:
  4221 ;;		_TMR2_SetInterruptHandler
  4222 ;; This function is called by:
  4223 ;;		_SYSTEM_Initialize
  4224 ;; This function uses a non-reentrant model
  4225 ;;
  4226                           
  4227                           	psect	text13
  4228  004456                     __ptext13:
  4229                           	callstack 0
  4230  004456                     _TMR2_Initialize:
  4231                           	callstack 118
  4232  004456                     
  4233                           ;mcc_generated_files/tmr2.c: 69:     T2CLKCON = 0x01;
  4234  004456  0E01               	movlw	1
  4235  004458  0103               	movlb	3	; () banked
  4236  00445A  6F26               	movwf	38,b	;volatile
  4237                           
  4238                           ;mcc_generated_files/tmr2.c: 72:     T2HLT = 0x00;
  4239  00445C  0E00               	movlw	0
  4240  00445E  6F25               	movwf	37,b	;volatile
  4241                           
  4242                           ;mcc_generated_files/tmr2.c: 75:     T2RST = 0x00;
  4243  004460  0E00               	movlw	0
  4244  004462  6F27               	movwf	39,b	;volatile
  4245                           
  4246                           ;mcc_generated_files/tmr2.c: 78:     T2PR = 0x9B;
  4247  004464  0E9B               	movlw	155
  4248  004466  6F23               	movwf	35,b	;volatile
  4249                           
  4250                           ;mcc_generated_files/tmr2.c: 81:     T2TMR = 0x00;
  4251  004468  0E00               	movlw	0
  4252  00446A  6F22               	movwf	34,b	;volatile
  4253  00446C                     
  4254                           ; BSR set to: 3
  4255                           ;mcc_generated_files/tmr2.c: 84:     PIR3bits.TMR2IF = 0;
  4256  00446C  96B1               	bcf	177,3,c	;volatile
  4257  00446E                     
  4258                           ; BSR set to: 3
  4259                           ;mcc_generated_files/tmr2.c: 87:     PIE3bits.TMR2IE = 1;
  4260  00446E  86A1               	bsf	161,3,c	;volatile
  4261  004470                     
  4262                           ; BSR set to: 3
  4263                           ;mcc_generated_files/tmr2.c: 90:     TMR2_SetInterruptHandler(TMR2_DefaultInterruptHandl
      +                          er);
  4264  004470  0E9E               	movlw	low _TMR2_DefaultInterruptHandler
  4265  004472  6E06               	movwf	TMR2_SetInterruptHandler@InterruptHandler^(0+1280),c
  4266  004474  0E45               	movlw	high _TMR2_DefaultInterruptHandler
  4267  004476  6E07               	movwf	(TMR2_SetInterruptHandler@InterruptHandler+1)^(0+1280),c
  4268  004478  0E00               	movlw	low (_TMR2_DefaultInterruptHandler shr (0+16))
  4269  00447A  6E08               	movwf	(TMR2_SetInterruptHandler@InterruptHandler+2)^(0+1280),c
  4270  00447C  ECC2  F022         	call	_TMR2_SetInterruptHandler	;wreg free
  4271  004480                     
  4272                           ;mcc_generated_files/tmr2.c: 93:     T2CON = 0xB0;
  4273  004480  0EB0               	movlw	176
  4274  004482  0103               	movlb	3	; () banked
  4275  004484  6F24               	movwf	36,b	;volatile
  4276  004486                     
  4277                           ; BSR set to: 3
  4278  004486  0012               	return		;funcret
  4279  004488                     __end_of_TMR2_Initialize:
  4280                           	callstack 0
  4281                           
  4282 ;; *************** function _TMR2_SetInterruptHandler *****************
  4283 ;; Defined at:
  4284 ;;		line 186 in file "mcc_generated_files/tmr2.c"
  4285 ;; Parameters:    Size  Location     Type
  4286 ;;  InterruptHan    3    5[COMRAM] PTR FTN()void 
  4287 ;;		 -> updateDac(1), TMR2_DefaultInterruptHandler(1), 
  4288 ;; Auto vars:     Size  Location     Type
  4289 ;;		None
  4290 ;; Return value:  Size  Location     Type
  4291 ;;                  1    wreg      void 
  4292 ;; Registers used:
  4293 ;;		wreg, status,2, status,0
  4294 ;; Tracked objects:
  4295 ;;		On entry : 0/0
  4296 ;;		On exit  : 0/0
  4297 ;;		Unchanged: 0/0
  4298 ;; Data sizes:     COMRAM   BANK5   BANK6   BANK7   BANK8   BANK9  BANK10  BANK11  BANK12  BANK13  BANK14  BANK15  BANK1
      +6  BANK17  BANK18  BANK19  BANK20  BANK21  BANK22  BANK23  BANK24  BANK25  BANK26  BANK27  BANK28  BANK29  BANK30  BANK3
      +1  BANK32  BANK33  BANK34  BANK35  BANK36
  4299 ;;      Params:         3       0       0       0       0       0       0       0       0       0       0       0       
      +0       0       0       0       0       0       0       0       0       0       0       0       0       0       0       
      +0       0       0       0       0       0
  4300 ;;      Locals:         0       0       0       0       0       0       0       0       0       0       0       0       
      +0       0       0       0       0       0       0       0       0       0       0       0       0       0       0       
      +0       0       0       0       0       0
  4301 ;;      Temps:          0       0       0       0       0       0       0       0       0       0       0       0       
      +0       0       0       0       0       0       0       0       0       0       0       0       0       0       0       
      +0       0       0       0       0       0
  4302 ;;      Totals:         3       0       0       0       0       0       0       0       0       0       0       0       
      +0       0       0       0       0       0       0       0       0       0       0       0       0       0       0       
      +0       0       0       0       0       0
  4303 ;;Total ram usage:        3 bytes
  4304 ;; Hardware stack levels used: 1
  4305 ;; Hardware stack levels required when called: 6
  4306 ;; This function calls:
  4307 ;;		Nothing
  4308 ;; This function is called by:
  4309 ;;		_TMR2_Initialize
  4310 ;;		_main
  4311 ;; This function uses a non-reentrant model
  4312 ;;
  4313                           
  4314                           	psect	text14
  4315  004584                     __ptext14:
  4316                           	callstack 0
  4317  004584                     _TMR2_SetInterruptHandler:
  4318                           	callstack 120
  4319  004584                     
  4320                           ;mcc_generated_files/tmr2.c: 187:     TMR2_InterruptHandler = InterruptHandler;
  4321  004584  C506  F5D3         	movff	TMR2_SetInterruptHandler@InterruptHandler,_TMR2_InterruptHandler
  4322  004588  C507  F5D4         	movff	TMR2_SetInterruptHandler@InterruptHandler+1,_TMR2_InterruptHandler+1
  4323  00458C  C508  F5D5         	movff	TMR2_SetInterruptHandler@InterruptHandler+2,_TMR2_InterruptHandler+2
  4324  004590  0012               	return		;funcret
  4325  004592                     __end_of_TMR2_SetInterruptHandler:
  4326                           	callstack 0
  4327                           
  4328 ;; *************** function _SPI1_Initialize *****************
  4329 ;; Defined at:
  4330 ;;		line 64 in file "mcc_generated_files/spi1.c"
  4331 ;; Parameters:    Size  Location     Type
  4332 ;;		None
  4333 ;; Auto vars:     Size  Location     Type
  4334 ;;		None
  4335 ;; Return value:  Size  Location     Type
  4336 ;;                  1    wreg      void 
  4337 ;; Registers used:
  4338 ;;		wreg, status,2
  4339 ;; Tracked objects:
  4340 ;;		On entry : 0/0
  4341 ;;		On exit  : 0/0
  4342 ;;		Unchanged: 0/0
  4343 ;; Data sizes:     COMRAM   BANK5   BANK6   BANK7   BANK8   BANK9  BANK10  BANK11  BANK12  BANK13  BANK14  BANK15  BANK1
      +6  BANK17  BANK18  BANK19  BANK20  BANK21  BANK22  BANK23  BANK24  BANK25  BANK26  BANK27  BANK28  BANK29  BANK30  BANK3
      +1  BANK32  BANK33  BANK34  BANK35  BANK36
  4344 ;;      Params:         0       0       0       0       0       0       0       0       0       0       0       0       
      +0       0       0       0       0       0       0       0       0       0       0       0       0       0       0       
      +0       0       0       0       0       0
  4345 ;;      Locals:         0       0       0       0       0       0       0       0       0       0       0       0       
      +0       0       0       0       0       0       0       0       0       0       0       0       0       0       0       
      +0       0       0       0       0       0
  4346 ;;      Temps:          0       0       0       0       0       0       0       0       0       0       0       0       
      +0       0       0       0       0       0       0       0       0       0       0       0       0       0       0       
      +0       0       0       0       0       0
  4347 ;;      Totals:         0       0       0       0       0       0       0       0       0       0       0       0       
      +0       0       0       0       0       0       0       0       0       0       0       0       0       0       0       
      +0       0       0       0       0       0
  4348 ;;Total ram usage:        0 bytes
  4349 ;; Hardware stack levels used: 1
  4350 ;; Hardware stack levels required when called: 6
  4351 ;; This function calls:
  4352 ;;		Nothing
  4353 ;; This function is called by:
  4354 ;;		_SYSTEM_Initialize
  4355 ;; This function uses a non-reentrant model
  4356 ;;
  4357                           
  4358                           	psect	text15
  4359  00455A                     __ptext15:
  4360                           	callstack 0
  4361  00455A                     _SPI1_Initialize:
  4362                           	callstack 119
  4363  00455A                     
  4364                           ;mcc_generated_files/spi1.c: 67:     SPI1CON0 = 0x02;
  4365  00455A  0E02               	movlw	2
  4366  00455C  0100               	movlb	0	; () banked
  4367  00455E  6F84               	movwf	132,b	;volatile
  4368                           
  4369                           ;mcc_generated_files/spi1.c: 69:     SPI1CON1 = 0x40;
  4370  004560  0E40               	movlw	64
  4371  004562  6F85               	movwf	133,b	;volatile
  4372                           
  4373                           ;mcc_generated_files/spi1.c: 71:     SPI1CON2 = 0x00;
  4374  004564  0E00               	movlw	0
  4375  004566  6F86               	movwf	134,b	;volatile
  4376                           
  4377                           ;mcc_generated_files/spi1.c: 73:     SPI1CLK = 0x00;
  4378  004568  0E00               	movlw	0
  4379  00456A  6F8C               	movwf	140,b	;volatile
  4380                           
  4381                           ;mcc_generated_files/spi1.c: 75:     SPI1BAUD = 0x03;
  4382  00456C  0E03               	movlw	3
  4383  00456E  6F89               	movwf	137,b	;volatile
  4384  004570                     
  4385                           ; BSR set to: 0
  4386                           ;mcc_generated_files/spi1.c: 76:     TRISCbits.TRISC6 = 0;
  4387  004570  9CC8               	bcf	200,6,c	;volatile
  4388  004572                     
  4389                           ; BSR set to: 0
  4390  004572  0012               	return		;funcret
  4391  004574                     __end_of_SPI1_Initialize:
  4392                           	callstack 0
  4393                           
  4394 ;; *************** function _PMD_Initialize *****************
  4395 ;; Defined at:
  4396 ;;		line 77 in file "mcc_generated_files/mcc.c"
  4397 ;; Parameters:    Size  Location     Type
  4398 ;;		None
  4399 ;; Auto vars:     Size  Location     Type
  4400 ;;		None
  4401 ;; Return value:  Size  Location     Type
  4402 ;;                  1    wreg      void 
  4403 ;; Registers used:
  4404 ;;		wreg, status,2
  4405 ;; Tracked objects:
  4406 ;;		On entry : 0/0
  4407 ;;		On exit  : 0/0
  4408 ;;		Unchanged: 0/0
  4409 ;; Data sizes:     COMRAM   BANK5   BANK6   BANK7   BANK8   BANK9  BANK10  BANK11  BANK12  BANK13  BANK14  BANK15  BANK1
      +6  BANK17  BANK18  BANK19  BANK20  BANK21  BANK22  BANK23  BANK24  BANK25  BANK26  BANK27  BANK28  BANK29  BANK30  BANK3
      +1  BANK32  BANK33  BANK34  BANK35  BANK36
  4410 ;;      Params:         0       0       0       0       0       0       0       0       0       0       0       0       
      +0       0       0       0       0       0       0       0       0       0       0       0       0       0       0       
      +0       0       0       0       0       0
  4411 ;;      Locals:         0       0       0       0       0       0       0       0       0       0       0       0       
      +0       0       0       0       0       0       0       0       0       0       0       0       0       0       0       
      +0       0       0       0       0       0
  4412 ;;      Temps:          0       0       0       0       0       0       0       0       0       0       0       0       
      +0       0       0       0       0       0       0       0       0       0       0       0       0       0       0       
      +0       0       0       0       0       0
  4413 ;;      Totals:         0       0       0       0       0       0       0       0       0       0       0       0       
      +0       0       0       0       0       0       0       0       0       0       0       0       0       0       0       
      +0       0       0       0       0       0
  4414 ;;Total ram usage:        0 bytes
  4415 ;; Hardware stack levels used: 1
  4416 ;; Hardware stack levels required when called: 6
  4417 ;; This function calls:
  4418 ;;		Nothing
  4419 ;; This function is called by:
  4420 ;;		_SYSTEM_Initialize
  4421 ;; This function uses a non-reentrant model
  4422 ;;
  4423                           
  4424                           	psect	text16
  4425  0044BA                     __ptext16:
  4426                           	callstack 0
  4427  0044BA                     _PMD_Initialize:
  4428                           	callstack 119
  4429  0044BA                     
  4430                           ;mcc_generated_files/mcc.c: 80:     PMD0 = 0x00;
  4431  0044BA  0E00               	movlw	0
  4432  0044BC  0100               	movlb	0	; () banked
  4433  0044BE  6F60               	movwf	96,b	;volatile
  4434                           
  4435                           ;mcc_generated_files/mcc.c: 82:     PMD1 = 0x00;
  4436  0044C0  0E00               	movlw	0
  4437  0044C2  6F61               	movwf	97,b	;volatile
  4438                           
  4439                           ;mcc_generated_files/mcc.c: 84:     PMD3 = 0x00;
  4440  0044C4  0E00               	movlw	0
  4441  0044C6  6F63               	movwf	99,b	;volatile
  4442                           
  4443                           ;mcc_generated_files/mcc.c: 86:     PMD4 = 0x00;
  4444  0044C8  0E00               	movlw	0
  4445  0044CA  6F64               	movwf	100,b	;volatile
  4446                           
  4447                           ;mcc_generated_files/mcc.c: 88:     PMD5 = 0x00;
  4448  0044CC  0E00               	movlw	0
  4449  0044CE  6F65               	movwf	101,b	;volatile
  4450                           
  4451                           ;mcc_generated_files/mcc.c: 90:     PMD6 = 0x00;
  4452  0044D0  0E00               	movlw	0
  4453  0044D2  6F66               	movwf	102,b	;volatile
  4454                           
  4455                           ;mcc_generated_files/mcc.c: 92:     PMD7 = 0x00;
  4456  0044D4  0E00               	movlw	0
  4457  0044D6  6F67               	movwf	103,b	;volatile
  4458                           
  4459                           ;mcc_generated_files/mcc.c: 94:     PMD8 = 0x00;
  4460  0044D8  0E00               	movlw	0
  4461  0044DA  6F68               	movwf	104,b	;volatile
  4462  0044DC                     
  4463                           ; BSR set to: 0
  4464  0044DC  0012               	return		;funcret
  4465  0044DE                     __end_of_PMD_Initialize:
  4466                           	callstack 0
  4467                           
  4468 ;; *************** function _PIN_MANAGER_Initialize *****************
  4469 ;; Defined at:
  4470 ;;		line 55 in file "mcc_generated_files/pin_manager.c"
  4471 ;; Parameters:    Size  Location     Type
  4472 ;;		None
  4473 ;; Auto vars:     Size  Location     Type
  4474 ;;		None
  4475 ;; Return value:  Size  Location     Type
  4476 ;;                  1    wreg      void 
  4477 ;; Registers used:
  4478 ;;		wreg, status,2
  4479 ;; Tracked objects:
  4480 ;;		On entry : 0/0
  4481 ;;		On exit  : 0/0
  4482 ;;		Unchanged: 0/0
  4483 ;; Data sizes:     COMRAM   BANK5   BANK6   BANK7   BANK8   BANK9  BANK10  BANK11  BANK12  BANK13  BANK14  BANK15  BANK1
      +6  BANK17  BANK18  BANK19  BANK20  BANK21  BANK22  BANK23  BANK24  BANK25  BANK26  BANK27  BANK28  BANK29  BANK30  BANK3
      +1  BANK32  BANK33  BANK34  BANK35  BANK36
  4484 ;;      Params:         0       0       0       0       0       0       0       0       0       0       0       0       
      +0       0       0       0       0       0       0       0       0       0       0       0       0       0       0       
      +0       0       0       0       0       0
  4485 ;;      Locals:         0       0       0       0       0       0       0       0       0       0       0       0       
      +0       0       0       0       0       0       0       0       0       0       0       0       0       0       0       
      +0       0       0       0       0       0
  4486 ;;      Temps:          0       0       0       0       0       0       0       0       0       0       0       0       
      +0       0       0       0       0       0       0       0       0       0       0       0       0       0       0       
      +0       0       0       0       0       0
  4487 ;;      Totals:         0       0       0       0       0       0       0       0       0       0       0       0       
      +0       0       0       0       0       0       0       0       0       0       0       0       0       0       0       
      +0       0       0       0       0       0
  4488 ;;Total ram usage:        0 bytes
  4489 ;; Hardware stack levels used: 1
  4490 ;; Hardware stack levels required when called: 6
  4491 ;; This function calls:
  4492 ;;		Nothing
  4493 ;; This function is called by:
  4494 ;;		_SYSTEM_Initialize
  4495 ;; This function uses a non-reentrant model
  4496 ;;
  4497                           
  4498                           	psect	text17
  4499  0041D6                     __ptext17:
  4500                           	callstack 0
  4501  0041D6                     _PIN_MANAGER_Initialize:
  4502                           	callstack 119
  4503  0041D6                     
  4504                           ;mcc_generated_files/pin_manager.c: 60:     LATE = 0x00;
  4505  0041D6  0E00               	movlw	0
  4506  0041D8  6EC2               	movwf	194,c	;volatile
  4507                           
  4508                           ;mcc_generated_files/pin_manager.c: 61:     LATD = 0x00;
  4509  0041DA  0E00               	movlw	0
  4510  0041DC  6EC1               	movwf	193,c	;volatile
  4511                           
  4512                           ;mcc_generated_files/pin_manager.c: 62:     LATA = 0x00;
  4513  0041DE  0E00               	movlw	0
  4514  0041E0  6EBE               	movwf	190,c	;volatile
  4515                           
  4516                           ;mcc_generated_files/pin_manager.c: 63:     LATF = 0x00;
  4517  0041E2  0E00               	movlw	0
  4518  0041E4  6EC3               	movwf	195,c	;volatile
  4519                           
  4520                           ;mcc_generated_files/pin_manager.c: 64:     LATB = 0x00;
  4521  0041E6  0E00               	movlw	0
  4522  0041E8  6EBF               	movwf	191,c	;volatile
  4523                           
  4524                           ;mcc_generated_files/pin_manager.c: 65:     LATC = 0x00;
  4525  0041EA  0E00               	movlw	0
  4526  0041EC  6EC0               	movwf	192,c	;volatile
  4527                           
  4528                           ;mcc_generated_files/pin_manager.c: 70:     TRISE = 0x07;
  4529  0041EE  0E07               	movlw	7
  4530  0041F0  6ECA               	movwf	202,c	;volatile
  4531                           
  4532                           ;mcc_generated_files/pin_manager.c: 71:     TRISF = 0xF7;
  4533  0041F2  0EF7               	movlw	247
  4534  0041F4  6ECB               	movwf	203,c	;volatile
  4535  0041F6                     
  4536                           ;mcc_generated_files/pin_manager.c: 72:     TRISA = 0xFF;
  4537  0041F6  68C6               	setf	198,c	;volatile
  4538  0041F8                     
  4539                           ;mcc_generated_files/pin_manager.c: 73:     TRISB = 0xFF;
  4540  0041F8  68C7               	setf	199,c	;volatile
  4541                           
  4542                           ;mcc_generated_files/pin_manager.c: 74:     TRISC = 0xAF;
  4543  0041FA  0EAF               	movlw	175
  4544  0041FC  6EC8               	movwf	200,c	;volatile
  4545                           
  4546                           ;mcc_generated_files/pin_manager.c: 75:     TRISD = 0x7F;
  4547  0041FE  0E7F               	movlw	127
  4548  004200  6EC9               	movwf	201,c	;volatile
  4549                           
  4550                           ;mcc_generated_files/pin_manager.c: 80:     ANSELD = 0x7F;
  4551  004202  0E7F               	movlw	127
  4552  004204  0104               	movlb	4	; () banked
  4553  004206  6F18               	movwf	24,b	;volatile
  4554                           
  4555                           ;mcc_generated_files/pin_manager.c: 81:     ANSELC = 0x8F;
  4556  004208  0E8F               	movlw	143
  4557  00420A  6F10               	movwf	16,b	;volatile
  4558  00420C                     
  4559                           ; BSR set to: 4
  4560                           ;mcc_generated_files/pin_manager.c: 82:     ANSELB = 0xFF;
  4561  00420C  6908               	setf	8,b	;volatile
  4562                           
  4563                           ;mcc_generated_files/pin_manager.c: 83:     ANSELE = 0x07;
  4564  00420E  0E07               	movlw	7
  4565  004210  6F20               	movwf	32,b	;volatile
  4566                           
  4567                           ;mcc_generated_files/pin_manager.c: 84:     ANSELF = 0xF7;
  4568  004212  0EF7               	movlw	247
  4569  004214  6F28               	movwf	40,b	;volatile
  4570  004216                     
  4571                           ; BSR set to: 4
  4572                           ;mcc_generated_files/pin_manager.c: 85:     ANSELA = 0xFF;
  4573  004216  6900               	setf	0,b	;volatile
  4574                           
  4575                           ;mcc_generated_files/pin_manager.c: 90:     WPUD = 0x00;
  4576  004218  0E00               	movlw	0
  4577  00421A  6F19               	movwf	25,b	;volatile
  4578                           
  4579                           ;mcc_generated_files/pin_manager.c: 91:     WPUF = 0x00;
  4580  00421C  0E00               	movlw	0
  4581  00421E  6F29               	movwf	41,b	;volatile
  4582                           
  4583                           ;mcc_generated_files/pin_manager.c: 92:     WPUE = 0x00;
  4584  004220  0E00               	movlw	0
  4585  004222  6F21               	movwf	33,b	;volatile
  4586                           
  4587                           ;mcc_generated_files/pin_manager.c: 93:     WPUB = 0x00;
  4588  004224  0E00               	movlw	0
  4589  004226  6F09               	movwf	9,b	;volatile
  4590                           
  4591                           ;mcc_generated_files/pin_manager.c: 94:     WPUA = 0x00;
  4592  004228  0E00               	movlw	0
  4593  00422A  6F01               	movwf	1,b	;volatile
  4594                           
  4595                           ;mcc_generated_files/pin_manager.c: 95:     WPUC = 0x00;
  4596  00422C  0E00               	movlw	0
  4597  00422E  6F11               	movwf	17,b	;volatile
  4598                           
  4599                           ;mcc_generated_files/pin_manager.c: 100:     RB1I2C = 0x00;
  4600  004230  0E00               	movlw	0
  4601  004232  0102               	movlb	2	; () banked
  4602  004234  6F89               	movwf	137,b	;volatile
  4603                           
  4604                           ;mcc_generated_files/pin_manager.c: 101:     RB2I2C = 0x00;
  4605  004236  0E00               	movlw	0
  4606  004238  6F88               	movwf	136,b	;volatile
  4607                           
  4608                           ;mcc_generated_files/pin_manager.c: 102:     RC3I2C = 0x00;
  4609  00423A  0E00               	movlw	0
  4610  00423C  6F87               	movwf	135,b	;volatile
  4611                           
  4612                           ;mcc_generated_files/pin_manager.c: 103:     RC4I2C = 0x00;
  4613  00423E  0E00               	movlw	0
  4614  004240  6F86               	movwf	134,b	;volatile
  4615                           
  4616                           ;mcc_generated_files/pin_manager.c: 108:     ODCONE = 0x00;
  4617  004242  0E00               	movlw	0
  4618  004244  0104               	movlb	4	; () banked
  4619  004246  6F22               	movwf	34,b	;volatile
  4620                           
  4621                           ;mcc_generated_files/pin_manager.c: 109:     ODCONF = 0x00;
  4622  004248  0E00               	movlw	0
  4623  00424A  6F2A               	movwf	42,b	;volatile
  4624                           
  4625                           ;mcc_generated_files/pin_manager.c: 110:     ODCONA = 0x00;
  4626  00424C  0E00               	movlw	0
  4627  00424E  6F02               	movwf	2,b	;volatile
  4628                           
  4629                           ;mcc_generated_files/pin_manager.c: 111:     ODCONB = 0x00;
  4630  004250  0E00               	movlw	0
  4631  004252  6F0A               	movwf	10,b	;volatile
  4632                           
  4633                           ;mcc_generated_files/pin_manager.c: 112:     ODCONC = 0x00;
  4634  004254  0E00               	movlw	0
  4635  004256  6F12               	movwf	18,b	;volatile
  4636                           
  4637                           ;mcc_generated_files/pin_manager.c: 113:     ODCOND = 0x00;
  4638  004258  0E00               	movlw	0
  4639  00425A  6F1A               	movwf	26,b	;volatile
  4640  00425C                     
  4641                           ; BSR set to: 4
  4642                           ;mcc_generated_files/pin_manager.c: 118:     SLRCONA = 0xFF;
  4643  00425C  6903               	setf	3,b	;volatile
  4644  00425E                     
  4645                           ; BSR set to: 4
  4646                           ;mcc_generated_files/pin_manager.c: 119:     SLRCONB = 0xFF;
  4647  00425E  690B               	setf	11,b	;volatile
  4648  004260                     
  4649                           ; BSR set to: 4
  4650                           ;mcc_generated_files/pin_manager.c: 120:     SLRCONC = 0xFF;
  4651  004260  6913               	setf	19,b	;volatile
  4652  004262                     
  4653                           ; BSR set to: 4
  4654                           ;mcc_generated_files/pin_manager.c: 121:     SLRCOND = 0xFF;
  4655  004262  691B               	setf	27,b	;volatile
  4656                           
  4657                           ;mcc_generated_files/pin_manager.c: 122:     SLRCONE = 0x07;
  4658  004264  0E07               	movlw	7
  4659  004266  6F23               	movwf	35,b	;volatile
  4660  004268                     
  4661                           ; BSR set to: 4
  4662                           ;mcc_generated_files/pin_manager.c: 123:     SLRCONF = 0xFF;
  4663  004268  692B               	setf	43,b	;volatile
  4664  00426A                     
  4665                           ; BSR set to: 4
  4666                           ;mcc_generated_files/pin_manager.c: 128:     INLVLA = 0xFF;
  4667  00426A  6904               	setf	4,b	;volatile
  4668  00426C                     
  4669                           ; BSR set to: 4
  4670                           ;mcc_generated_files/pin_manager.c: 129:     INLVLB = 0xFF;
  4671  00426C  690C               	setf	12,b	;volatile
  4672  00426E                     
  4673                           ; BSR set to: 4
  4674                           ;mcc_generated_files/pin_manager.c: 130:     INLVLC = 0xFF;
  4675  00426E  6914               	setf	20,b	;volatile
  4676  004270                     
  4677                           ; BSR set to: 4
  4678                           ;mcc_generated_files/pin_manager.c: 131:     INLVLD = 0xFF;
  4679  004270  691C               	setf	28,b	;volatile
  4680                           
  4681                           ;mcc_generated_files/pin_manager.c: 132:     INLVLE = 0x0F;
  4682  004272  0E0F               	movlw	15
  4683  004274  6F24               	movwf	36,b	;volatile
  4684  004276                     
  4685                           ; BSR set to: 4
  4686                           ;mcc_generated_files/pin_manager.c: 133:     INLVLF = 0xFF;
  4687  004276  692C               	setf	44,b	;volatile
  4688                           
  4689                           ;mcc_generated_files/pin_manager.c: 142:     SPI1SCKPPS = 0x16;
  4690  004278  0E16               	movlw	22
  4691  00427A  0102               	movlb	2	; () banked
  4692  00427C  6F6A               	movwf	106,b	;volatile
  4693                           
  4694                           ;mcc_generated_files/pin_manager.c: 143:     RC4PPS = 0x32;
  4695  00427E  0E32               	movlw	50
  4696  004280  6F15               	movwf	21,b	;volatile
  4697                           
  4698                           ;mcc_generated_files/pin_manager.c: 144:     RC6PPS = 0x31;
  4699  004282  0E31               	movlw	49
  4700  004284  6F17               	movwf	23,b	;volatile
  4701                           
  4702                           ;mcc_generated_files/pin_manager.c: 145:     SPI1SDIPPS = 0x15;
  4703  004286  0E15               	movlw	21
  4704  004288  6F6B               	movwf	107,b	;volatile
  4705  00428A                     
  4706                           ; BSR set to: 2
  4707  00428A  0012               	return		;funcret
  4708  00428C                     __end_of_PIN_MANAGER_Initialize:
  4709                           	callstack 0
  4710                           
  4711 ;; *************** function _OSCILLATOR_Initialize *****************
  4712 ;; Defined at:
  4713 ;;		line 61 in file "mcc_generated_files/mcc.c"
  4714 ;; Parameters:    Size  Location     Type
  4715 ;;		None
  4716 ;; Auto vars:     Size  Location     Type
  4717 ;;		None
  4718 ;; Return value:  Size  Location     Type
  4719 ;;                  1    wreg      void 
  4720 ;; Registers used:
  4721 ;;		wreg, status,2
  4722 ;; Tracked objects:
  4723 ;;		On entry : 0/0
  4724 ;;		On exit  : 0/0
  4725 ;;		Unchanged: 0/0
  4726 ;; Data sizes:     COMRAM   BANK5   BANK6   BANK7   BANK8   BANK9  BANK10  BANK11  BANK12  BANK13  BANK14  BANK15  BANK1
      +6  BANK17  BANK18  BANK19  BANK20  BANK21  BANK22  BANK23  BANK24  BANK25  BANK26  BANK27  BANK28  BANK29  BANK30  BANK3
      +1  BANK32  BANK33  BANK34  BANK35  BANK36
  4727 ;;      Params:         0       0       0       0       0       0       0       0       0       0       0       0       
      +0       0       0       0       0       0       0       0       0       0       0       0       0       0       0       
      +0       0       0       0       0       0
  4728 ;;      Locals:         0       0       0       0       0       0       0       0       0       0       0       0       
      +0       0       0       0       0       0       0       0       0       0       0       0       0       0       0       
      +0       0       0       0       0       0
  4729 ;;      Temps:          0       0       0       0       0       0       0       0       0       0       0       0       
      +0       0       0       0       0       0       0       0       0       0       0       0       0       0       0       
      +0       0       0       0       0       0
  4730 ;;      Totals:         0       0       0       0       0       0       0       0       0       0       0       0       
      +0       0       0       0       0       0       0       0       0       0       0       0       0       0       0       
      +0       0       0       0       0       0
  4731 ;;Total ram usage:        0 bytes
  4732 ;; Hardware stack levels used: 1
  4733 ;; Hardware stack levels required when called: 6
  4734 ;; This function calls:
  4735 ;;		Nothing
  4736 ;; This function is called by:
  4737 ;;		_SYSTEM_Initialize
  4738 ;; This function uses a non-reentrant model
  4739 ;;
  4740                           
  4741                           	psect	text18
  4742  00453E                     __ptext18:
  4743                           	callstack 0
  4744  00453E                     _OSCILLATOR_Initialize:
  4745                           	callstack 119
  4746  00453E                     
  4747                           ;mcc_generated_files/mcc.c: 64:     OSCCON1 = 0x60;
  4748  00453E  0E60               	movlw	96
  4749  004540  0100               	movlb	0	; () banked
  4750  004542  6FAD               	movwf	173,b	;volatile
  4751                           
  4752                           ;mcc_generated_files/mcc.c: 66:     OSCCON3 = 0x00;
  4753  004544  0E00               	movlw	0
  4754  004546  6FAF               	movwf	175,b	;volatile
  4755                           
  4756                           ;mcc_generated_files/mcc.c: 68:     OSCEN = 0x00;
  4757  004548  0E00               	movlw	0
  4758  00454A  6FB3               	movwf	179,b	;volatile
  4759                           
  4760                           ;mcc_generated_files/mcc.c: 70:     OSCFRQ = 0x08;
  4761  00454C  0E08               	movlw	8
  4762  00454E  6FB1               	movwf	177,b	;volatile
  4763                           
  4764                           ;mcc_generated_files/mcc.c: 72:     OSCTUNE = 0x00;
  4765  004550  0E00               	movlw	0
  4766  004552  6FB0               	movwf	176,b	;volatile
  4767                           
  4768                           ;mcc_generated_files/mcc.c: 74:     ACTCON = 0x00;
  4769  004554  0E00               	movlw	0
  4770  004556  6FAC               	movwf	172,b	;volatile
  4771  004558                     
  4772                           ; BSR set to: 0
  4773  004558  0012               	return		;funcret
  4774  00455A                     __end_of_OSCILLATOR_Initialize:
  4775                           	callstack 0
  4776                           
  4777 ;; *************** function _INTERRUPT_Initialize *****************
  4778 ;; Defined at:
  4779 ;;		line 52 in file "mcc_generated_files/interrupt_manager.c"
  4780 ;; Parameters:    Size  Location     Type
  4781 ;;		None
  4782 ;; Auto vars:     Size  Location     Type
  4783 ;;		None
  4784 ;; Return value:  Size  Location     Type
  4785 ;;                  1    wreg      void 
  4786 ;; Registers used:
  4787 ;;		None
  4788 ;; Tracked objects:
  4789 ;;		On entry : 0/0
  4790 ;;		On exit  : 0/0
  4791 ;;		Unchanged: 0/0
  4792 ;; Data sizes:     COMRAM   BANK5   BANK6   BANK7   BANK8   BANK9  BANK10  BANK11  BANK12  BANK13  BANK14  BANK15  BANK1
      +6  BANK17  BANK18  BANK19  BANK20  BANK21  BANK22  BANK23  BANK24  BANK25  BANK26  BANK27  BANK28  BANK29  BANK30  BANK3
      +1  BANK32  BANK33  BANK34  BANK35  BANK36
  4793 ;;      Params:         0       0       0       0       0       0       0       0       0       0       0       0       
      +0       0       0       0       0       0       0       0       0       0       0       0       0       0       0       
      +0       0       0       0       0       0
  4794 ;;      Locals:         0       0       0       0       0       0       0       0       0       0       0       0       
      +0       0       0       0       0       0       0       0       0       0       0       0       0       0       0       
      +0       0       0       0       0       0
  4795 ;;      Temps:          0       0       0       0       0       0       0       0       0       0       0       0       
      +0       0       0       0       0       0       0       0       0       0       0       0       0       0       0       
      +0       0       0       0       0       0
  4796 ;;      Totals:         0       0       0       0       0       0       0       0       0       0       0       0       
      +0       0       0       0       0       0       0       0       0       0       0       0       0       0       0       
      +0       0       0       0       0       0
  4797 ;;Total ram usage:        0 bytes
  4798 ;; Hardware stack levels used: 1
  4799 ;; Hardware stack levels required when called: 6
  4800 ;; This function calls:
  4801 ;;		Nothing
  4802 ;; This function is called by:
  4803 ;;		_SYSTEM_Initialize
  4804 ;; This function uses a non-reentrant model
  4805 ;;
  4806                           
  4807                           	psect	text19
  4808  00459A                     __ptext19:
  4809                           	callstack 0
  4810  00459A                     _INTERRUPT_Initialize:
  4811                           	callstack 119
  4812  00459A                     
  4813                           ;mcc_generated_files/interrupt_manager.c: 55:     INTCON0bits.IPEN = 0;
  4814  00459A  9AD6               	bcf	214,5,c	;volatile
  4815  00459C  0012               	return		;funcret
  4816  00459E                     __end_of_INTERRUPT_Initialize:
  4817                           	callstack 0
  4818                           
  4819 ;; *************** function _ADCC_Initialize *****************
  4820 ;; Defined at:
  4821 ;;		line 62 in file "mcc_generated_files/adcc.c"
  4822 ;; Parameters:    Size  Location     Type
  4823 ;;		None
  4824 ;; Auto vars:     Size  Location     Type
  4825 ;;		None
  4826 ;; Return value:  Size  Location     Type
  4827 ;;                  1    wreg      void 
  4828 ;; Registers used:
  4829 ;;		wreg, status,2
  4830 ;; Tracked objects:
  4831 ;;		On entry : 0/0
  4832 ;;		On exit  : 0/0
  4833 ;;		Unchanged: 0/0
  4834 ;; Data sizes:     COMRAM   BANK5   BANK6   BANK7   BANK8   BANK9  BANK10  BANK11  BANK12  BANK13  BANK14  BANK15  BANK1
      +6  BANK17  BANK18  BANK19  BANK20  BANK21  BANK22  BANK23  BANK24  BANK25  BANK26  BANK27  BANK28  BANK29  BANK30  BANK3
      +1  BANK32  BANK33  BANK34  BANK35  BANK36
  4835 ;;      Params:         0       0       0       0       0       0       0       0       0       0       0       0       
      +0       0       0       0       0       0       0       0       0       0       0       0       0       0       0       
      +0       0       0       0       0       0
  4836 ;;      Locals:         0       0       0       0       0       0       0       0       0       0       0       0       
      +0       0       0       0       0       0       0       0       0       0       0       0       0       0       0       
      +0       0       0       0       0       0
  4837 ;;      Temps:          0       0       0       0       0       0       0       0       0       0       0       0       
      +0       0       0       0       0       0       0       0       0       0       0       0       0       0       0       
      +0       0       0       0       0       0
  4838 ;;      Totals:         0       0       0       0       0       0       0       0       0       0       0       0       
      +0       0       0       0       0       0       0       0       0       0       0       0       0       0       0       
      +0       0       0       0       0       0
  4839 ;;Total ram usage:        0 bytes
  4840 ;; Hardware stack levels used: 1
  4841 ;; Hardware stack levels required when called: 6
  4842 ;; This function calls:
  4843 ;;		Nothing
  4844 ;; This function is called by:
  4845 ;;		_SYSTEM_Initialize
  4846 ;; This function uses a non-reentrant model
  4847 ;;
  4848                           
  4849                           	psect	text20
  4850  00428C                     __ptext20:
  4851                           	callstack 0
  4852  00428C                     _ADCC_Initialize:
  4853                           	callstack 119
  4854  00428C                     
  4855                           ;mcc_generated_files/adcc.c: 66:     ADLTHL = 0x00;
  4856  00428C  0E00               	movlw	0
  4857  00428E  0103               	movlb	3	; () banked
  4858  004290  6FD9               	movwf	217,b	;volatile
  4859                           
  4860                           ;mcc_generated_files/adcc.c: 68:     ADLTHH = 0x00;
  4861  004292  0E00               	movlw	0
  4862  004294  6FDA               	movwf	218,b	;volatile
  4863                           
  4864                           ;mcc_generated_files/adcc.c: 70:     ADUTHL = 0x00;
  4865  004296  0E00               	movlw	0
  4866  004298  6FDB               	movwf	219,b	;volatile
  4867                           
  4868                           ;mcc_generated_files/adcc.c: 72:     ADUTHH = 0x00;
  4869  00429A  0E00               	movlw	0
  4870  00429C  6FDC               	movwf	220,b	;volatile
  4871                           
  4872                           ;mcc_generated_files/adcc.c: 74:     ADSTPTL = 0x00;
  4873  00429E  0E00               	movlw	0
  4874  0042A0  6FDF               	movwf	223,b	;volatile
  4875                           
  4876                           ;mcc_generated_files/adcc.c: 76:     ADSTPTH = 0x00;
  4877  0042A2  0E00               	movlw	0
  4878  0042A4  6FE0               	movwf	224,b	;volatile
  4879                           
  4880                           ;mcc_generated_files/adcc.c: 78:     ADACCU = 0x00;
  4881  0042A6  0E00               	movlw	0
  4882  0042A8  6FE5               	movwf	229,b	;volatile
  4883                           
  4884                           ;mcc_generated_files/adcc.c: 80:     ADRPT = 0x00;
  4885  0042AA  0E00               	movlw	0
  4886  0042AC  6FE7               	movwf	231,b	;volatile
  4887                           
  4888                           ;mcc_generated_files/adcc.c: 82:     ADPCH = 0x00;
  4889  0042AE  0E00               	movlw	0
  4890  0042B0  6FEC               	movwf	236,b	;volatile
  4891                           
  4892                           ;mcc_generated_files/adcc.c: 84:     ADACQL = 0x00;
  4893  0042B2  0E00               	movlw	0
  4894  0042B4  6FEE               	movwf	238,b	;volatile
  4895                           
  4896                           ;mcc_generated_files/adcc.c: 86:     ADACQH = 0x00;
  4897  0042B6  0E00               	movlw	0
  4898  0042B8  6FEF               	movwf	239,b	;volatile
  4899                           
  4900                           ;mcc_generated_files/adcc.c: 88:     ADCAP = 0x00;
  4901  0042BA  0E00               	movlw	0
  4902  0042BC  6FF0               	movwf	240,b	;volatile
  4903                           
  4904                           ;mcc_generated_files/adcc.c: 90:     ADPREL = 0x00;
  4905  0042BE  0E00               	movlw	0
  4906  0042C0  6FF1               	movwf	241,b	;volatile
  4907                           
  4908                           ;mcc_generated_files/adcc.c: 92:     ADPREH = 0x00;
  4909  0042C2  0E00               	movlw	0
  4910  0042C4  6FF2               	movwf	242,b	;volatile
  4911                           
  4912                           ;mcc_generated_files/adcc.c: 94:     ADCON1 = 0x00;
  4913  0042C6  0E00               	movlw	0
  4914  0042C8  6FF4               	movwf	244,b	;volatile
  4915                           
  4916                           ;mcc_generated_files/adcc.c: 96:     ADCON2 = 0x10;
  4917  0042CA  0E10               	movlw	16
  4918  0042CC  6FF5               	movwf	245,b	;volatile
  4919                           
  4920                           ;mcc_generated_files/adcc.c: 98:     ADCON3 = 0x00;
  4921  0042CE  0E00               	movlw	0
  4922  0042D0  6FF6               	movwf	246,b	;volatile
  4923                           
  4924                           ;mcc_generated_files/adcc.c: 100:     ADSTAT = 0x00;
  4925  0042D2  0E00               	movlw	0
  4926  0042D4  6FF7               	movwf	247,b	;volatile
  4927                           
  4928                           ;mcc_generated_files/adcc.c: 102:     ADREF = 0x00;
  4929  0042D6  0E00               	movlw	0
  4930  0042D8  6FF8               	movwf	248,b	;volatile
  4931                           
  4932                           ;mcc_generated_files/adcc.c: 104:     ADACT = 0x00;
  4933  0042DA  0E00               	movlw	0
  4934  0042DC  6FF9               	movwf	249,b	;volatile
  4935                           
  4936                           ;mcc_generated_files/adcc.c: 106:     ADCLK = 0x00;
  4937  0042DE  0E00               	movlw	0
  4938  0042E0  6FFA               	movwf	250,b	;volatile
  4939                           
  4940                           ;mcc_generated_files/adcc.c: 108:     ADCON0 = 0x90;
  4941  0042E2  0E90               	movlw	144
  4942  0042E4  6FF3               	movwf	243,b	;volatile
  4943  0042E6                     
  4944                           ; BSR set to: 3
  4945  0042E6  0012               	return		;funcret
  4946  0042E8                     __end_of_ADCC_Initialize:
  4947                           	callstack 0
  4948                           
  4949 ;; *************** function _SPI1_Open *****************
  4950 ;; Defined at:
  4951 ;;		line 79 in file "mcc_generated_files/spi1.c"
  4952 ;; Parameters:    Size  Location     Type
  4953 ;;  spi1UniqueCo    1    wreg     enum E355
  4954 ;; Auto vars:     Size  Location     Type
  4955 ;;  spi1UniqueCo    1    6[COMRAM] enum E355
  4956 ;; Return value:  Size  Location     Type
  4957 ;;                  1    wreg      _Bool 
  4958 ;; Registers used:
  4959 ;;		wreg, status,2, status,0, tblptrl, tblptrh, tblptru, prodl, prodh
  4960 ;; Tracked objects:
  4961 ;;		On entry : 0/0
  4962 ;;		On exit  : 0/0
  4963 ;;		Unchanged: 0/0
  4964 ;; Data sizes:     COMRAM   BANK5   BANK6   BANK7   BANK8   BANK9  BANK10  BANK11  BANK12  BANK13  BANK14  BANK15  BANK1
      +6  BANK17  BANK18  BANK19  BANK20  BANK21  BANK22  BANK23  BANK24  BANK25  BANK26  BANK27  BANK28  BANK29  BANK30  BANK3
      +1  BANK32  BANK33  BANK34  BANK35  BANK36
  4965 ;;      Params:         0       0       0       0       0       0       0       0       0       0       0       0       
      +0       0       0       0       0       0       0       0       0       0       0       0       0       0       0       
      +0       0       0       0       0       0
  4966 ;;      Locals:         1       0       0       0       0       0       0       0       0       0       0       0       
      +0       0       0       0       0       0       0       0       0       0       0       0       0       0       0       
      +0       0       0       0       0       0
  4967 ;;      Temps:          1       0       0       0       0       0       0       0       0       0       0       0       
      +0       0       0       0       0       0       0       0       0       0       0       0       0       0       0       
      +0       0       0       0       0       0
  4968 ;;      Totals:         2       0       0       0       0       0       0       0       0       0       0       0       
      +0       0       0       0       0       0       0       0       0       0       0       0       0       0       0       
      +0       0       0       0       0       0
  4969 ;;Total ram usage:        2 bytes
  4970 ;; Hardware stack levels used: 1
  4971 ;; Hardware stack levels required when called: 6
  4972 ;; This function calls:
  4973 ;;		Nothing
  4974 ;; This function is called by:
  4975 ;;		_main
  4976 ;; This function uses a non-reentrant model
  4977 ;;
  4978                           
  4979                           	psect	text21
  4980  004100                     __ptext21:
  4981                           	callstack 0
  4982  004100                     _SPI1_Open:
  4983                           	callstack 120
  4984                           
  4985                           ; BSR set to: 3
  4986                           ;incstack = 0
  4987                           ;SPI1_Open@spi1UniqueConfiguration stored from wreg
  4988  004100  6E07               	movwf	SPI1_Open@spi1UniqueConfiguration^(0+1280),c
  4989  004102                     
  4990                           ;mcc_generated_files/spi1.c: 79: _Bool SPI1_Open(spi1_modes_t spi1UniqueConfiguration);m
      +                          cc_generated_files/spi1.c: 80: {;mcc_generated_files/spi1.c: 81:     if(!SPI1CON0bits.EN
      +                          )
  4991  004102  0100               	movlb	0	; () banked
  4992  004104  BF84               	btfsc	132,7,b	;volatile
  4993  004106  EF87  F020         	goto	u1921
  4994  00410A  EF89  F020         	goto	u1920
  4995  00410E                     u1921:
  4996  00410E  EFEA  F020         	goto	l292
  4997  004112                     u1920:
  4998  004112                     
  4999                           ; BSR set to: 0
  5000                           ;mcc_generated_files/spi1.c: 82:     {;mcc_generated_files/spi1.c: 83:         SPI1CON0 
      +                          = spi1_configuration[spi1UniqueConfiguration].con0;
  5001  004112  5007               	movf	SPI1_Open@spi1UniqueConfiguration^(0+1280),w,c
  5002  004114  0D05               	mullw	5
  5003  004116  0E01               	movlw	low _spi1_configuration
  5004  004118  24F3               	addwf	243,w,c
  5005  00411A  6EF6               	movwf	tblptrl,c
  5006  00411C  0E25               	movlw	high _spi1_configuration
  5007  00411E  20F4               	addwfc	244,w,c
  5008  004120  6EF7               	movwf	tblptrh,c
  5009  004122                     	if	1	;There are 3 active tblptr bytes
  5010  004122  6AF8               	clrf	tblptru,c
  5011  004124  0E00               	movlw	low (__mediumconst shr (0+16))
  5012  004126  22F8               	addwfc	tblptru,f,c
  5013  004128                     	endif
  5014  004128  0008               	tblrd		*
  5015  00412A  C4F5 F084          	movff	tablat,132	;volatile
  5016                           
  5017                           ;mcc_generated_files/spi1.c: 84:         SPI1CON1 = spi1_configuration[spi1UniqueConfigu
      +                          ration].con1;
  5018  00412E  5007               	movf	SPI1_Open@spi1UniqueConfiguration^(0+1280),w,c
  5019  004130  0D05               	mullw	5
  5020  004132  0E01               	movlw	1
  5021  004134  26F3               	addwf	243,f,c
  5022  004136  0E00               	movlw	0
  5023  004138  22F4               	addwfc	244,f,c
  5024  00413A  0E01               	movlw	low _spi1_configuration
  5025  00413C  24F3               	addwf	243,w,c
  5026  00413E  6EF6               	movwf	tblptrl,c
  5027  004140  0E25               	movlw	high _spi1_configuration
  5028  004142  20F4               	addwfc	244,w,c
  5029  004144  6EF7               	movwf	tblptrh,c
  5030  004146                     	if	1	;There are 3 active tblptr bytes
  5031  004146  6AF8               	clrf	tblptru,c
  5032  004148  0E00               	movlw	low (__mediumconst shr (0+16))
  5033  00414A  22F8               	addwfc	tblptru,f,c
  5034  00414C                     	endif
  5035  00414C  0008               	tblrd		*
  5036  00414E  C4F5 F085          	movff	tablat,133	;volatile
  5037                           
  5038                           ;mcc_generated_files/spi1.c: 85:         SPI1CON2 = spi1_configuration[spi1UniqueConfigu
      +                          ration].con2 | (0x1 | 0x2);
  5039  004152  5007               	movf	SPI1_Open@spi1UniqueConfiguration^(0+1280),w,c
  5040  004154  0D05               	mullw	5
  5041  004156  0E02               	movlw	2
  5042  004158  26F3               	addwf	243,f,c
  5043  00415A  0E00               	movlw	0
  5044  00415C  22F4               	addwfc	244,f,c
  5045  00415E  0E01               	movlw	low _spi1_configuration
  5046  004160  24F3               	addwf	243,w,c
  5047  004162  6EF6               	movwf	tblptrl,c
  5048  004164  0E25               	movlw	high _spi1_configuration
  5049  004166  20F4               	addwfc	244,w,c
  5050  004168  6EF7               	movwf	tblptrh,c
  5051  00416A                     	if	1	;There are 3 active tblptr bytes
  5052  00416A  6AF8               	clrf	tblptru,c
  5053  00416C  0E00               	movlw	low (__mediumconst shr (0+16))
  5054  00416E  22F8               	addwfc	tblptru,f,c
  5055  004170                     	endif
  5056  004170  0008               	tblrd		*
  5057  004172  50F5               	movf	tablat,w,c
  5058  004174  0903               	iorlw	3
  5059  004176  6F86               	movwf	134,b	;volatile
  5060                           
  5061                           ;mcc_generated_files/spi1.c: 86:         SPI1BAUD = spi1_configuration[spi1UniqueConfigu
      +                          ration].baud;
  5062  004178  5007               	movf	SPI1_Open@spi1UniqueConfiguration^(0+1280),w,c
  5063  00417A  0D05               	mullw	5
  5064  00417C  0E03               	movlw	3
  5065  00417E  26F3               	addwf	243,f,c
  5066  004180  0E00               	movlw	0
  5067  004182  22F4               	addwfc	244,f,c
  5068  004184  0E01               	movlw	low _spi1_configuration
  5069  004186  24F3               	addwf	243,w,c
  5070  004188  6EF6               	movwf	tblptrl,c
  5071  00418A  0E25               	movlw	high _spi1_configuration
  5072  00418C  20F4               	addwfc	244,w,c
  5073  00418E  6EF7               	movwf	tblptrh,c
  5074  004190                     	if	1	;There are 3 active tblptr bytes
  5075  004190  6AF8               	clrf	tblptru,c
  5076  004192  0E00               	movlw	low (__mediumconst shr (0+16))
  5077  004194  22F8               	addwfc	tblptru,f,c
  5078  004196                     	endif
  5079  004196  0008               	tblrd		*
  5080  004198  C4F5 F089          	movff	tablat,137	;volatile
  5081                           
  5082                           ;mcc_generated_files/spi1.c: 87:         TRISCbits.TRISC6 = spi1_configuration[spi1Uniqu
      +                          eConfiguration].operation;
  5083  00419C  5007               	movf	SPI1_Open@spi1UniqueConfiguration^(0+1280),w,c
  5084  00419E  0D05               	mullw	5
  5085  0041A0  0E04               	movlw	4
  5086  0041A2  26F3               	addwf	243,f,c
  5087  0041A4  0E00               	movlw	0
  5088  0041A6  22F4               	addwfc	244,f,c
  5089  0041A8  0E01               	movlw	low _spi1_configuration
  5090  0041AA  24F3               	addwf	243,w,c
  5091  0041AC  6EF6               	movwf	tblptrl,c
  5092  0041AE  0E25               	movlw	high _spi1_configuration
  5093  0041B0  20F4               	addwfc	244,w,c
  5094  0041B2  6EF7               	movwf	tblptrh,c
  5095  0041B4                     	if	1	;There are 3 active tblptr bytes
  5096  0041B4  6AF8               	clrf	tblptru,c
  5097  0041B6  0E00               	movlw	low (__mediumconst shr (0+16))
  5098  0041B8  22F8               	addwfc	tblptru,f,c
  5099  0041BA                     	endif
  5100  0041BA  0008               	tblrd		*
  5101  0041BC  0061 F3D4  F506    	movff	tablat,??_SPI1_Open
  5102  0041C2  3A06               	swapf	??_SPI1_Open^(0+1280),f,c
  5103  0041C4  4606               	rlncf	??_SPI1_Open^(0+1280),f,c
  5104  0041C6  4606               	rlncf	??_SPI1_Open^(0+1280),f,c
  5105  0041C8  50C8               	movf	200,w,c	;volatile
  5106  0041CA  1806               	xorwf	??_SPI1_Open^(0+1280),w,c
  5107  0041CC  0BBF               	andlw	-65
  5108  0041CE  1806               	xorwf	??_SPI1_Open^(0+1280),w,c
  5109  0041D0  6EC8               	movwf	200,c	;volatile
  5110  0041D2                     
  5111                           ; BSR set to: 0
  5112                           ;mcc_generated_files/spi1.c: 88:         SPI1CON0bits.EN = 1;
  5113  0041D2  8F84               	bsf	132,7,b	;volatile
  5114  0041D4                     l292:
  5115                           
  5116                           ; BSR set to: 0
  5117  0041D4  0012               	return		;funcret
  5118  0041D6                     __end_of_SPI1_Open:
  5119                           	callstack 0
  5120                           
  5121 ;; *************** function _ADCC_StartConversion *****************
  5122 ;; Defined at:
  5123 ;;		line 113 in file "mcc_generated_files/adcc.c"
  5124 ;; Parameters:    Size  Location     Type
  5125 ;;  channel         1    wreg     enum E16691
  5126 ;; Auto vars:     Size  Location     Type
  5127 ;;  channel         1    5[COMRAM] enum E16691
  5128 ;; Return value:  Size  Location     Type
  5129 ;;                  1    wreg      void 
  5130 ;; Registers used:
  5131 ;;		wreg
  5132 ;; Tracked objects:
  5133 ;;		On entry : 0/0
  5134 ;;		On exit  : 0/0
  5135 ;;		Unchanged: 0/0
  5136 ;; Data sizes:     COMRAM   BANK5   BANK6   BANK7   BANK8   BANK9  BANK10  BANK11  BANK12  BANK13  BANK14  BANK15  BANK1
      +6  BANK17  BANK18  BANK19  BANK20  BANK21  BANK22  BANK23  BANK24  BANK25  BANK26  BANK27  BANK28  BANK29  BANK30  BANK3
      +1  BANK32  BANK33  BANK34  BANK35  BANK36
  5137 ;;      Params:         0       0       0       0       0       0       0       0       0       0       0       0       
      +0       0       0       0       0       0       0       0       0       0       0       0       0       0       0       
      +0       0       0       0       0       0
  5138 ;;      Locals:         1       0       0       0       0       0       0       0       0       0       0       0       
      +0       0       0       0       0       0       0       0       0       0       0       0       0       0       0       
      +0       0       0       0       0       0
  5139 ;;      Temps:          0       0       0       0       0       0       0       0       0       0       0       0       
      +0       0       0       0       0       0       0       0       0       0       0       0       0       0       0       
      +0       0       0       0       0       0
  5140 ;;      Totals:         1       0       0       0       0       0       0       0       0       0       0       0       
      +0       0       0       0       0       0       0       0       0       0       0       0       0       0       0       
      +0       0       0       0       0       0
  5141 ;;Total ram usage:        1 bytes
  5142 ;; Hardware stack levels used: 1
  5143 ;; Hardware stack levels required when called: 6
  5144 ;; This function calls:
  5145 ;;		Nothing
  5146 ;; This function is called by:
  5147 ;;		_main
  5148 ;; This function uses a non-reentrant model
  5149 ;;
  5150                           
  5151                           	psect	text22
  5152  004574                     __ptext22:
  5153                           	callstack 0
  5154  004574                     _ADCC_StartConversion:
  5155                           	callstack 120
  5156                           
  5157                           ; BSR set to: 0
  5158                           ;incstack = 0
  5159                           ;ADCC_StartConversion@channel stored from wreg
  5160  004574  6E06               	movwf	ADCC_StartConversion@channel^(0+1280),c
  5161  004576                     
  5162                           ;mcc_generated_files/adcc.c: 113: void ADCC_StartConversion(adcc_channel_t channel);mcc_
      +                          generated_files/adcc.c: 114: {;mcc_generated_files/adcc.c: 116:     ADPCH = channel;
  5163  004576  0061  F418  F3EC   	movff	ADCC_StartConversion@channel,1004	;volatile
  5164  00457C                     
  5165                           ;mcc_generated_files/adcc.c: 119:     ADCON0bits.ADON = 1;
  5166  00457C  0103               	movlb	3	; () banked
  5167  00457E  8FF3               	bsf	243,7,b	;volatile
  5168  004580                     
  5169                           ; BSR set to: 3
  5170                           ;mcc_generated_files/adcc.c: 122:     ADCON0bits.ADGO = 1;
  5171  004580  81F3               	bsf	243,0,b	;volatile
  5172  004582                     
  5173                           ; BSR set to: 3
  5174  004582  0012               	return		;funcret
  5175  004584                     __end_of_ADCC_StartConversion:
  5176                           	callstack 0
  5177                           
  5178 ;; *************** function _INTERRUPT_InterruptManager *****************
  5179 ;; Defined at:
  5180 ;;		line 58 in file "mcc_generated_files/interrupt_manager.c"
  5181 ;; Parameters:    Size  Location     Type
  5182 ;;		None
  5183 ;; Auto vars:     Size  Location     Type
  5184 ;;		None
  5185 ;; Return value:  Size  Location     Type
  5186 ;;                  1    wreg      void 
  5187 ;; Registers used:
  5188 ;;		wreg, fsr2l, fsr2h, status,2, status,0, pcl, pclath, pclatu, tosl, prodl, prodh, cstack
  5189 ;; Tracked objects:
  5190 ;;		On entry : 0/0
  5191 ;;		On exit  : 0/0
  5192 ;;		Unchanged: 0/0
  5193 ;; Data sizes:     COMRAM   BANK5   BANK6   BANK7   BANK8   BANK9  BANK10  BANK11  BANK12  BANK13  BANK14  BANK15  BANK1
      +6  BANK17  BANK18  BANK19  BANK20  BANK21  BANK22  BANK23  BANK24  BANK25  BANK26  BANK27  BANK28  BANK29  BANK30  BANK3
      +1  BANK32  BANK33  BANK34  BANK35  BANK36
  5194 ;;      Params:         0       0       0       0       0       0       0       0       0       0       0       0       
      +0       0       0       0       0       0       0       0       0       0       0       0       0       0       0       
      +0       0       0       0       0       0
  5195 ;;      Locals:         0       0       0       0       0       0       0       0       0       0       0       0       
      +0       0       0       0       0       0       0       0       0       0       0       0       0       0       0       
      +0       0       0       0       0       0
  5196 ;;      Temps:          2       0       0       0       0       0       0       0       0       0       0       0       
      +0       0       0       0       0       0       0       0       0       0       0       0       0       0       0       
      +0       0       0       0       0       0
  5197 ;;      Totals:         2       0       0       0       0       0       0       0       0       0       0       0       
      +0       0       0       0       0       0       0       0       0       0       0       0       0       0       0       
      +0       0       0       0       0       0
  5198 ;;Total ram usage:        2 bytes
  5199 ;; Hardware stack levels used: 1
  5200 ;; Hardware stack levels required when called: 5
  5201 ;; This function calls:
  5202 ;;		_TMR2_ISR
  5203 ;; This function is called by:
  5204 ;;		Interrupt level 2
  5205 ;; This function uses a non-reentrant model
  5206 ;;
  5207                           
  5208                           	psect	text23
  5209  0043E8                     __ptext23:
  5210                           	callstack 0
  5211  0043E8                     _INTERRUPT_InterruptManager:
  5212                           	callstack 117
  5213                           
  5214                           ; BSR set to: 3
  5215                           ;incstack = 0
  5216  0043E8  0061 F3E8  F504    	movff	pclath,??_INTERRUPT_InterruptManager
  5217  0043EE  0061 F3EC  F505    	movff	pclatu,??_INTERRUPT_InterruptManager+1
  5218  0043F4                     
  5219                           ;mcc_generated_files/interrupt_manager.c: 61:     if(PIE3bits.TMR2IE == 1 && PIR3bits.TM
      +                          R2IF == 1)
  5220  0043F4  A6A1               	btfss	161,3,c	;volatile
  5221  0043F6  EFFF  F021         	goto	i2u205_41
  5222  0043FA  EF01  F022         	goto	i2u205_40
  5223  0043FE                     i2u205_41:
  5224  0043FE  EF0A  F022         	goto	i2l261
  5225  004402                     i2u205_40:
  5226  004402  A6B1               	btfss	177,3,c	;volatile
  5227  004404  EF06  F022         	goto	i2u206_41
  5228  004408  EF08  F022         	goto	i2u206_40
  5229  00440C                     i2u206_41:
  5230  00440C  EF0A  F022         	goto	i2l261
  5231  004410                     i2u206_40:
  5232  004410                     
  5233                           ;mcc_generated_files/interrupt_manager.c: 62:     {;mcc_generated_files/interrupt_manage
      +                          r.c: 63:         TMR2_ISR();
  5234  004410  ECC9  F022         	call	_TMR2_ISR	;wreg free
  5235  004414                     i2l261:
  5236  004414  0061  F414  F4FB   	movff	??_INTERRUPT_InterruptManager+1,pclatu
  5237  00441A  0061  F410  F4FA   	movff	??_INTERRUPT_InterruptManager,pclath
  5238  004420  0011               	retfie		f
  5239  004422                     __end_of_INTERRUPT_InterruptManager:
  5240                           	callstack 0
  5241                           
  5242 ;; *************** function _TMR2_ISR *****************
  5243 ;; Defined at:
  5244 ;;		line 165 in file "mcc_generated_files/tmr2.c"
  5245 ;; Parameters:    Size  Location     Type
  5246 ;;		None
  5247 ;; Auto vars:     Size  Location     Type
  5248 ;;		None
  5249 ;; Return value:  Size  Location     Type
  5250 ;;                  1    wreg      void 
  5251 ;; Registers used:
  5252 ;;		wreg, fsr2l, fsr2h, status,2, status,0, pcl, pclath, pclatu, tosl, prodl, prodh, cstack
  5253 ;; Tracked objects:
  5254 ;;		On entry : 0/0
  5255 ;;		On exit  : 0/0
  5256 ;;		Unchanged: 0/0
  5257 ;; Data sizes:     COMRAM   BANK5   BANK6   BANK7   BANK8   BANK9  BANK10  BANK11  BANK12  BANK13  BANK14  BANK15  BANK1
      +6  BANK17  BANK18  BANK19  BANK20  BANK21  BANK22  BANK23  BANK24  BANK25  BANK26  BANK27  BANK28  BANK29  BANK30  BANK3
      +1  BANK32  BANK33  BANK34  BANK35  BANK36
  5258 ;;      Params:         0       0       0       0       0       0       0       0       0       0       0       0       
      +0       0       0       0       0       0       0       0       0       0       0       0       0       0       0       
      +0       0       0       0       0       0
  5259 ;;      Locals:         0       0       0       0       0       0       0       0       0       0       0       0       
      +0       0       0       0       0       0       0       0       0       0       0       0       0       0       0       
      +0       0       0       0       0       0
  5260 ;;      Temps:          0       0       0       0       0       0       0       0       0       0       0       0       
      +0       0       0       0       0       0       0       0       0       0       0       0       0       0       0       
      +0       0       0       0       0       0
  5261 ;;      Totals:         0       0       0       0       0       0       0       0       0       0       0       0       
      +0       0       0       0       0       0       0       0       0       0       0       0       0       0       0       
      +0       0       0       0       0       0
  5262 ;;Total ram usage:        0 bytes
  5263 ;; Hardware stack levels used: 1
  5264 ;; Hardware stack levels required when called: 4
  5265 ;; This function calls:
  5266 ;;		_TMR2_CallBack
  5267 ;; This function is called by:
  5268 ;;		_INTERRUPT_InterruptManager
  5269 ;; This function uses a non-reentrant model
  5270 ;;
  5271                           
  5272                           	psect	text24
  5273  004592                     __ptext24:
  5274                           	callstack 0
  5275  004592                     _TMR2_ISR:
  5276                           	callstack 117
  5277  004592                     
  5278                           ;mcc_generated_files/tmr2.c: 169:     PIR3bits.TMR2IF = 0;
  5279  004592  96B1               	bcf	177,3,c	;volatile
  5280  004594                     
  5281                           ;mcc_generated_files/tmr2.c: 173:     TMR2_CallBack();
  5282  004594  EC44  F022         	call	_TMR2_CallBack	;wreg free
  5283  004598  0012               	return		;funcret
  5284  00459A                     __end_of_TMR2_ISR:
  5285                           	callstack 0
  5286                           
  5287 ;; *************** function _TMR2_CallBack *****************
  5288 ;; Defined at:
  5289 ;;		line 176 in file "mcc_generated_files/tmr2.c"
  5290 ;; Parameters:    Size  Location     Type
  5291 ;;		None
  5292 ;; Auto vars:     Size  Location     Type
  5293 ;;		None
  5294 ;; Return value:  Size  Location     Type
  5295 ;;                  1    wreg      void 
  5296 ;; Registers used:
  5297 ;;		wreg, fsr2l, fsr2h, status,2, status,0, pcl, pclath, pclatu, tosl, prodl, prodh, cstack
  5298 ;; Tracked objects:
  5299 ;;		On entry : 0/0
  5300 ;;		On exit  : 0/0
  5301 ;;		Unchanged: 0/0
  5302 ;; Data sizes:     COMRAM   BANK5   BANK6   BANK7   BANK8   BANK9  BANK10  BANK11  BANK12  BANK13  BANK14  BANK15  BANK1
      +6  BANK17  BANK18  BANK19  BANK20  BANK21  BANK22  BANK23  BANK24  BANK25  BANK26  BANK27  BANK28  BANK29  BANK30  BANK3
      +1  BANK32  BANK33  BANK34  BANK35  BANK36
  5303 ;;      Params:         0       0       0       0       0       0       0       0       0       0       0       0       
      +0       0       0       0       0       0       0       0       0       0       0       0       0       0       0       
      +0       0       0       0       0       0
  5304 ;;      Locals:         0       0       0       0       0       0       0       0       0       0       0       0       
      +0       0       0       0       0       0       0       0       0       0       0       0       0       0       0       
      +0       0       0       0       0       0
  5305 ;;      Temps:          0       0       0       0       0       0       0       0       0       0       0       0       
      +0       0       0       0       0       0       0       0       0       0       0       0       0       0       0       
      +0       0       0       0       0       0
  5306 ;;      Totals:         0       0       0       0       0       0       0       0       0       0       0       0       
      +0       0       0       0       0       0       0       0       0       0       0       0       0       0       0       
      +0       0       0       0       0       0
  5307 ;;Total ram usage:        0 bytes
  5308 ;; Hardware stack levels used: 1
  5309 ;; Hardware stack levels required when called: 3
  5310 ;; This function calls:
  5311 ;;		Absolute function
  5312 ;;		_TMR2_DefaultInterruptHandler
  5313 ;;		_updateDac
  5314 ;; This function is called by:
  5315 ;;		_TMR2_ISR
  5316 ;; This function uses a non-reentrant model
  5317 ;;
  5318                           
  5319                           	psect	text25
  5320  004488                     __ptext25:
  5321                           	callstack 0
  5322  004488                     _TMR2_CallBack:
  5323                           	callstack 117
  5324  004488                     
  5325                           ;mcc_generated_files/tmr2.c: 180:     if(TMR2_InterruptHandler)
  5326  004488  0105               	movlb	5	; () banked
  5327  00448A  51D3               	movf	_TMR2_InterruptHandler& (0+255),w,b
  5328  00448C  11D4               	iorwf	(_TMR2_InterruptHandler+1)& (0+255),w,b
  5329  00448E  11D5               	iorwf	(_TMR2_InterruptHandler+2)& (0+255),w,b
  5330  004490  B4D8               	btfsc	status,2,c
  5331  004492  EF4D  F022         	goto	i2u185_41
  5332  004496  EF4F  F022         	goto	i2u185_40
  5333  00449A                     i2u185_41:
  5334  00449A  EF5C  F022         	goto	i2l80
  5335  00449E                     i2u185_40:
  5336  00449E                     
  5337                           ; BSR set to: 5
  5338                           ;mcc_generated_files/tmr2.c: 181:     {;mcc_generated_files/tmr2.c: 182:         TMR2_In
      +                          terruptHandler();
  5339  00449E  D802               	call	i2u186_48
  5340  0044A0  EF5C  F022         	goto	i2u186_49
  5341  0044A4                     i2u186_48:
  5342  0044A4  0005               	push	
  5343  0044A6  6EFA               	movwf	pclath,c
  5344  0044A8  51D3               	movf	_TMR2_InterruptHandler& (0+255),w,b
  5345  0044AA  6EFD               	movwf	tosl,c
  5346  0044AC  51D4               	movf	(_TMR2_InterruptHandler+1)& (0+255),w,b
  5347  0044AE  6EFE               	movwf	tosh,c
  5348  0044B0  51D5               	movf	(_TMR2_InterruptHandler+2)& (0+255),w,b
  5349  0044B2  6EFF               	movwf	tosu,c
  5350  0044B4  50FA               	movf	pclath,w,c
  5351  0044B6  0012               	return		;indir
  5352  0044B8                     i2u186_49:
  5353  0044B8                     i2l80:
  5354  0044B8  0012               	return		;funcret
  5355  0044BA                     __end_of_TMR2_CallBack:
  5356                           	callstack 0
  5357                           
  5358 ;; *************** function _TMR2_DefaultInterruptHandler *****************
  5359 ;; Defined at:
  5360 ;;		line 190 in file "mcc_generated_files/tmr2.c"
  5361 ;; Parameters:    Size  Location     Type
  5362 ;;		None
  5363 ;; Auto vars:     Size  Location     Type
  5364 ;;		None
  5365 ;; Return value:  Size  Location     Type
  5366 ;;                  1    wreg      void 
  5367 ;; Registers used:
  5368 ;;		None
  5369 ;; Tracked objects:
  5370 ;;		On entry : 0/0
  5371 ;;		On exit  : 0/0
  5372 ;;		Unchanged: 0/0
  5373 ;; Data sizes:     COMRAM   BANK5   BANK6   BANK7   BANK8   BANK9  BANK10  BANK11  BANK12  BANK13  BANK14  BANK15  BANK1
      +6  BANK17  BANK18  BANK19  BANK20  BANK21  BANK22  BANK23  BANK24  BANK25  BANK26  BANK27  BANK28  BANK29  BANK30  BANK3
      +1  BANK32  BANK33  BANK34  BANK35  BANK36
  5374 ;;      Params:         0       0       0       0       0       0       0       0       0       0       0       0       
      +0       0       0       0       0       0       0       0       0       0       0       0       0       0       0       
      +0       0       0       0       0       0
  5375 ;;      Locals:         0       0       0       0       0       0       0       0       0       0       0       0       
      +0       0       0       0       0       0       0       0       0       0       0       0       0       0       0       
      +0       0       0       0       0       0
  5376 ;;      Temps:          0       0       0       0       0       0       0       0       0       0       0       0       
      +0       0       0       0       0       0       0       0       0       0       0       0       0       0       0       
      +0       0       0       0       0       0
  5377 ;;      Totals:         0       0       0       0       0       0       0       0       0       0       0       0       
      +0       0       0       0       0       0       0       0       0       0       0       0       0       0       0       
      +0       0       0       0       0       0
  5378 ;;Total ram usage:        0 bytes
  5379 ;; Hardware stack levels used: 1
  5380 ;; This function calls:
  5381 ;;		Nothing
  5382 ;; This function is called by:
  5383 ;;		_TMR2_Initialize
  5384 ;;		_TMR2_CallBack
  5385 ;; This function uses a non-reentrant model
  5386 ;;
  5387                           
  5388                           	psect	text26
  5389  00459E                     __ptext26:
  5390                           	callstack 0
  5391  00459E                     _TMR2_DefaultInterruptHandler:
  5392                           	callstack 119
  5393  00459E  0012               	return		;funcret
  5394  0045A0                     __end_of_TMR2_DefaultInterruptHandler:
  5395                           	callstack 0
  5396                           
  5397 ;; *************** function _updateDac *****************
  5398 ;; Defined at:
  5399 ;;		line 74 in file "main.c"
  5400 ;; Parameters:    Size  Location     Type
  5401 ;;		None
  5402 ;; Auto vars:     Size  Location     Type
  5403 ;;		None
  5404 ;; Return value:  Size  Location     Type
  5405 ;;                  1    wreg      void 
  5406 ;; Registers used:
  5407 ;;		wreg, fsr2l, fsr2h, status,2, status,0, prodl, prodh, cstack
  5408 ;; Tracked objects:
  5409 ;;		On entry : 0/0
  5410 ;;		On exit  : 0/0
  5411 ;;		Unchanged: 0/0
  5412 ;; Data sizes:     COMRAM   BANK5   BANK6   BANK7   BANK8   BANK9  BANK10  BANK11  BANK12  BANK13  BANK14  BANK15  BANK1
      +6  BANK17  BANK18  BANK19  BANK20  BANK21  BANK22  BANK23  BANK24  BANK25  BANK26  BANK27  BANK28  BANK29  BANK30  BANK3
      +1  BANK32  BANK33  BANK34  BANK35  BANK36
  5413 ;;      Params:         0       0       0       0       0       0       0       0       0       0       0       0       
      +0       0       0       0       0       0       0       0       0       0       0       0       0       0       0       
      +0       0       0       0       0       0
  5414 ;;      Locals:         0       0       0       0       0       0       0       0       0       0       0       0       
      +0       0       0       0       0       0       0       0       0       0       0       0       0       0       0       
      +0       0       0       0       0       0
  5415 ;;      Temps:          0       0       0       0       0       0       0       0       0       0       0       0       
      +0       0       0       0       0       0       0       0       0       0       0       0       0       0       0       
      +0       0       0       0       0       0
  5416 ;;      Totals:         0       0       0       0       0       0       0       0       0       0       0       0       
      +0       0       0       0       0       0       0       0       0       0       0       0       0       0       0       
      +0       0       0       0       0       0
  5417 ;;Total ram usage:        0 bytes
  5418 ;; Hardware stack levels used: 1
  5419 ;; Hardware stack levels required when called: 2
  5420 ;; This function calls:
  5421 ;;		_dac
  5422 ;; This function is called by:
  5423 ;;		_main
  5424 ;;		_TMR2_CallBack
  5425 ;; This function uses a non-reentrant model
  5426 ;;
  5427                           
  5428                           	psect	text27
  5429  00436E                     __ptext27:
  5430                           	callstack 0
  5431  00436E                     _updateDac:
  5432                           	callstack 117
  5433  00436E                     
  5434                           ;main.c: 75:     u8value = (uint16_t) sins[u8count++];
  5435  00436E  5053               	movf	_u8count^(0+1280),w,c
  5436  004370  0D02               	mullw	2
  5437  004372  0E00               	movlw	low _sins
  5438  004374  24F3               	addwf	243,w,c
  5439  004376  6ED9               	movwf	fsr2l,c
  5440  004378  0E06               	movlw	high _sins
  5441  00437A  20F4               	addwfc	prodh,w,c
  5442  00437C  6EDA               	movwf	fsr2h,c
  5443  00437E  0061 F378  F551    	movff	postinc2,_u8value
  5444  004384  0061 F374  F552    	movff	postdec2,_u8value+1
  5445  00438A  2A53               	incf	_u8count^(0+1280),f,c
  5446  00438C                     
  5447                           ;main.c: 76:     dac(u8value);
  5448  00438C  C551  F502         	movff	_u8value,dac@value
  5449  004390  C552  F503         	movff	_u8value+1,dac@value+1
  5450  004394  EC80  F022         	call	_dac	;wreg free
  5451  004398                     
  5452                           ;main.c: 77:     if (u8count > 127) u8count = 0;
  5453  004398  0E7F               	movlw	127
  5454  00439A  6453               	cpfsgt	_u8count^(0+1280),c
  5455  00439C  EFD2  F021         	goto	i2u147_41
  5456  0043A0  EFD4  F021         	goto	i2u147_40
  5457  0043A4                     i2u147_41:
  5458  0043A4  EFD6  F021         	goto	i2l369
  5459  0043A8                     i2u147_40:
  5460  0043A8  0E00               	movlw	0
  5461  0043AA  6E53               	movwf	_u8count^(0+1280),c
  5462  0043AC                     i2l369:
  5463  0043AC  0012               	return		;funcret
  5464  0043AE                     __end_of_updateDac:
  5465                           	callstack 0
  5466                           
  5467 ;; *************** function _dac *****************
  5468 ;; Defined at:
  5469 ;;		line 59 in file "main.c"
  5470 ;; Parameters:    Size  Location     Type
  5471 ;;  value           2    1[COMRAM] unsigned short 
  5472 ;; Auto vars:     Size  Location     Type
  5473 ;;		None
  5474 ;; Return value:  Size  Location     Type
  5475 ;;                  1    wreg      void 
  5476 ;; Registers used:
  5477 ;;		wreg, status,2, status,0, cstack
  5478 ;; Tracked objects:
  5479 ;;		On entry : 0/0
  5480 ;;		On exit  : 0/0
  5481 ;;		Unchanged: 0/0
  5482 ;; Data sizes:     COMRAM   BANK5   BANK6   BANK7   BANK8   BANK9  BANK10  BANK11  BANK12  BANK13  BANK14  BANK15  BANK1
      +6  BANK17  BANK18  BANK19  BANK20  BANK21  BANK22  BANK23  BANK24  BANK25  BANK26  BANK27  BANK28  BANK29  BANK30  BANK3
      +1  BANK32  BANK33  BANK34  BANK35  BANK36
  5483 ;;      Params:         2       0       0       0       0       0       0       0       0       0       0       0       
      +0       0       0       0       0       0       0       0       0       0       0       0       0       0       0       
      +0       0       0       0       0       0
  5484 ;;      Locals:         0       0       0       0       0       0       0       0       0       0       0       0       
      +0       0       0       0       0       0       0       0       0       0       0       0       0       0       0       
      +0       0       0       0       0       0
  5485 ;;      Temps:          0       0       0       0       0       0       0       0       0       0       0       0       
      +0       0       0       0       0       0       0       0       0       0       0       0       0       0       0       
      +0       0       0       0       0       0
  5486 ;;      Totals:         2       0       0       0       0       0       0       0       0       0       0       0       
      +0       0       0       0       0       0       0       0       0       0       0       0       0       0       0       
      +0       0       0       0       0       0
  5487 ;;Total ram usage:        2 bytes
  5488 ;; Hardware stack levels used: 1
  5489 ;; Hardware stack levels required when called: 1
  5490 ;; This function calls:
  5491 ;;		_SPI1_ExchangeByte
  5492 ;; This function is called by:
  5493 ;;		_updateDac
  5494 ;; This function uses a non-reentrant model
  5495 ;;
  5496                           
  5497                           	psect	text28
  5498  004500                     __ptext28:
  5499                           	callstack 0
  5500  004500                     _dac:
  5501                           	callstack 117
  5502  004500  9EC1               	bcf	193,7,c	;volatile
  5503  004502                     
  5504                           ;main.c: 63:     u8temp = (value >> 8)&0x0F;
  5505  004502  5003               	movf	(dac@value+1)^(0+1280),w,c
  5506  004504  0B0F               	andlw	15
  5507  004506  6E54               	movwf	_u8temp^(0+1280),c
  5508                           
  5509                           ;main.c: 64:     u8temp |= 0x30;
  5510  004508  0E30               	movlw	48
  5511  00450A  1254               	iorwf	_u8temp^(0+1280),f,c
  5512  00450C                     
  5513                           ;main.c: 65:     SPI1_ExchangeByte(u8temp);
  5514  00450C  5054               	movf	_u8temp^(0+1280),w,c
  5515  00450E  EC6F  F022         	call	_SPI1_ExchangeByte
  5516  004512                     
  5517                           ;main.c: 68:     u8temp = value;
  5518  004512  C502  F554         	movff	dac@value,_u8temp
  5519  004516                     
  5520                           ;main.c: 69:     SPI1_ExchangeByte(u8temp);
  5521  004516  5054               	movf	_u8temp^(0+1280),w,c
  5522  004518  EC6F  F022         	call	_SPI1_ExchangeByte
  5523  00451C  8EC1               	bsf	193,7,c	;volatile
  5524  00451E  0012               	return		;funcret
  5525  004520                     __end_of_dac:
  5526                           	callstack 0
  5527                           
  5528 ;; *************** function _SPI1_ExchangeByte *****************
  5529 ;; Defined at:
  5530 ;;		line 99 in file "mcc_generated_files/spi1.c"
  5531 ;; Parameters:    Size  Location     Type
  5532 ;;  data            1    wreg     unsigned char 
  5533 ;; Auto vars:     Size  Location     Type
  5534 ;;  data            1    0[COMRAM] unsigned char 
  5535 ;; Return value:  Size  Location     Type
  5536 ;;                  1    wreg      unsigned char 
  5537 ;; Registers used:
  5538 ;;		wreg, status,2
  5539 ;; Tracked objects:
  5540 ;;		On entry : 0/0
  5541 ;;		On exit  : 0/0
  5542 ;;		Unchanged: 0/0
  5543 ;; Data sizes:     COMRAM   BANK5   BANK6   BANK7   BANK8   BANK9  BANK10  BANK11  BANK12  BANK13  BANK14  BANK15  BANK1
      +6  BANK17  BANK18  BANK19  BANK20  BANK21  BANK22  BANK23  BANK24  BANK25  BANK26  BANK27  BANK28  BANK29  BANK30  BANK3
      +1  BANK32  BANK33  BANK34  BANK35  BANK36
  5544 ;;      Params:         0       0       0       0       0       0       0       0       0       0       0       0       
      +0       0       0       0       0       0       0       0       0       0       0       0       0       0       0       
      +0       0       0       0       0       0
  5545 ;;      Locals:         1       0       0       0       0       0       0       0       0       0       0       0       
      +0       0       0       0       0       0       0       0       0       0       0       0       0       0       0       
      +0       0       0       0       0       0
  5546 ;;      Temps:          0       0       0       0       0       0       0       0       0       0       0       0       
      +0       0       0       0       0       0       0       0       0       0       0       0       0       0       0       
      +0       0       0       0       0       0
  5547 ;;      Totals:         1       0       0       0       0       0       0       0       0       0       0       0       
      +0       0       0       0       0       0       0       0       0       0       0       0       0       0       0       
      +0       0       0       0       0       0
  5548 ;;Total ram usage:        1 bytes
  5549 ;; Hardware stack levels used: 1
  5550 ;; This function calls:
  5551 ;;		Nothing
  5552 ;; This function is called by:
  5553 ;;		_dac
  5554 ;;		_SPI1_WriteBlock
  5555 ;;		_SPI1_ReadBlock
  5556 ;; This function uses a non-reentrant model
  5557 ;;
  5558                           
  5559                           	psect	text29
  5560  0044DE                     __ptext29:
  5561                           	callstack 0
  5562  0044DE                     _SPI1_ExchangeByte:
  5563                           	callstack 117
  5564                           
  5565                           ;incstack = 0
  5566                           ;SPI1_ExchangeByte@data stored from wreg
  5567  0044DE  6E01               	movwf	SPI1_ExchangeByte@data^(0+1280),c
  5568  0044E0                     
  5569                           ;mcc_generated_files/spi1.c: 99: uint8_t SPI1_ExchangeByte(uint8_t data);mcc_generated_f
      +                          iles/spi1.c: 100: {;mcc_generated_files/spi1.c: 101:     SPI1TCNTL = 1;
  5570  0044E0  0E01               	movlw	1
  5571  0044E2  0100               	movlb	0	; () banked
  5572  0044E4  6F82               	movwf	130,b	;volatile
  5573  0044E6                     
  5574                           ; BSR set to: 0
  5575                           ;mcc_generated_files/spi1.c: 102:     SPI1TXB = data;
  5576  0044E6  0061  F404  F081   	movff	SPI1_ExchangeByte@data,129	;volatile
  5577  0044EC                     i2l298:
  5578  0044EC  A0B1               	btfss	177,0,c	;volatile
  5579  0044EE  EF7B  F022         	goto	i2u107_41
  5580  0044F2  EF7D  F022         	goto	i2u107_40
  5581  0044F6                     i2u107_41:
  5582  0044F6  EF76  F022         	goto	i2l298
  5583  0044FA                     i2u107_40:
  5584  0044FA                     
  5585                           ;mcc_generated_files/spi1.c: 104:     return SPI1RXB;
  5586  0044FA  0100               	movlb	0	; () banked
  5587  0044FC  5180               	movf	128,w,b	;volatile
  5588  0044FE                     
  5589                           ; BSR set to: 0
  5590  0044FE  0012               	return		;funcret
  5591  004500                     __end_of_SPI1_ExchangeByte:
  5592                           	callstack 0
  5593                           
  5594                           ;
  5595                           ; Interrupt Vector Table @ 0x8
  5596                           ;
  5597                           
  5598                           	psect	ivt0x8
  5599  000008                     __pivt0x8:
  5600                           	callstack 0
  5601  000008                     ivt0x8_base:
  5602                           	callstack 0
  5603                           
  5604                           ; high-priority vector
  5605  000008  EFF4  F021         	goto	_INTERRUPT_InterruptManager
  5606  000018                     	org	16
  5607                           
  5608                           ; low-priority vector
  5609  000018  00FF               	reset	
  5610                           
  5611                           	psect	text30
  5612  000000                     __ptext30:
  5613                           	callstack 0
  5614  000000                     
  5615                           	psect	rparam
  5616  0000                     
  5617                           	psect	idloc
  5618                           
  5619                           ;Config register IDLOC0 @ 0x200000
  5620                           ;	unspecified, using default values
  5621  200000                     	org	2097152
  5622  200000  0FFF               	dw	4095
  5623                           
  5624                           ;Config register IDLOC1 @ 0x200002
  5625                           ;	unspecified, using default values
  5626  200002                     	org	2097154
  5627  200002  0FFF               	dw	4095
  5628                           
  5629                           ;Config register IDLOC2 @ 0x200004
  5630                           ;	unspecified, using default values
  5631  200004                     	org	2097156
  5632  200004  0FFF               	dw	4095
  5633                           
  5634                           ;Config register IDLOC3 @ 0x200006
  5635                           ;	unspecified, using default values
  5636  200006                     	org	2097158
  5637  200006  0FFF               	dw	4095
  5638                           
  5639                           ;Config register IDLOC4 @ 0x200008
  5640                           ;	unspecified, using default values
  5641  200008                     	org	2097160
  5642  200008  0FFF               	dw	4095
  5643                           
  5644                           ;Config register IDLOC5 @ 0x20000A
  5645                           ;	unspecified, using default values
  5646  20000A                     	org	2097162
  5647  20000A  0FFF               	dw	4095
  5648                           
  5649                           ;Config register IDLOC6 @ 0x20000C
  5650                           ;	unspecified, using default values
  5651  20000C                     	org	2097164
  5652  20000C  0FFF               	dw	4095
  5653                           
  5654                           ;Config register IDLOC7 @ 0x20000E
  5655                           ;	unspecified, using default values
  5656  20000E                     	org	2097166
  5657  20000E  0FFF               	dw	4095
  5658                           
  5659                           ;Config register IDLOC8 @ 0x200010
  5660                           ;	unspecified, using default values
  5661  200010                     	org	2097168
  5662  200010  0FFF               	dw	4095
  5663                           
  5664                           ;Config register IDLOC9 @ 0x200012
  5665                           ;	unspecified, using default values
  5666  200012                     	org	2097170
  5667  200012  0FFF               	dw	4095
  5668                           
  5669                           ;Config register IDLOC10 @ 0x200014
  5670                           ;	unspecified, using default values
  5671  200014                     	org	2097172
  5672  200014  0FFF               	dw	4095
  5673                           
  5674                           ;Config register IDLOC11 @ 0x200016
  5675                           ;	unspecified, using default values
  5676  200016                     	org	2097174
  5677  200016  0FFF               	dw	4095
  5678                           
  5679                           ;Config register IDLOC12 @ 0x200018
  5680                           ;	unspecified, using default values
  5681  200018                     	org	2097176
  5682  200018  0FFF               	dw	4095
  5683                           
  5684                           ;Config register IDLOC13 @ 0x20001A
  5685                           ;	unspecified, using default values
  5686  20001A                     	org	2097178
  5687  20001A  0FFF               	dw	4095
  5688                           
  5689                           ;Config register IDLOC14 @ 0x20001C
  5690                           ;	unspecified, using default values
  5691  20001C                     	org	2097180
  5692  20001C  0FFF               	dw	4095
  5693                           
  5694                           ;Config register IDLOC15 @ 0x20001E
  5695                           ;	unspecified, using default values
  5696  20001E                     	org	2097182
  5697  20001E  0FFF               	dw	4095
  5698                           
  5699                           ;Config register IDLOC16 @ 0x200020
  5700                           ;	unspecified, using default values
  5701  200020                     	org	2097184
  5702  200020  0FFF               	dw	4095
  5703                           
  5704                           ;Config register IDLOC17 @ 0x200022
  5705                           ;	unspecified, using default values
  5706  200022                     	org	2097186
  5707  200022  0FFF               	dw	4095
  5708                           
  5709                           ;Config register IDLOC18 @ 0x200024
  5710                           ;	unspecified, using default values
  5711  200024                     	org	2097188
  5712  200024  0FFF               	dw	4095
  5713                           
  5714                           ;Config register IDLOC19 @ 0x200026
  5715                           ;	unspecified, using default values
  5716  200026                     	org	2097190
  5717  200026  0FFF               	dw	4095
  5718                           
  5719                           ;Config register IDLOC20 @ 0x200028
  5720                           ;	unspecified, using default values
  5721  200028                     	org	2097192
  5722  200028  0FFF               	dw	4095
  5723                           
  5724                           ;Config register IDLOC21 @ 0x20002A
  5725                           ;	unspecified, using default values
  5726  20002A                     	org	2097194
  5727  20002A  0FFF               	dw	4095
  5728                           
  5729                           ;Config register IDLOC22 @ 0x20002C
  5730                           ;	unspecified, using default values
  5731  20002C                     	org	2097196
  5732  20002C  0FFF               	dw	4095
  5733                           
  5734                           ;Config register IDLOC23 @ 0x20002E
  5735                           ;	unspecified, using default values
  5736  20002E                     	org	2097198
  5737  20002E  0FFF               	dw	4095
  5738                           
  5739                           ;Config register IDLOC24 @ 0x200030
  5740                           ;	unspecified, using default values
  5741  200030                     	org	2097200
  5742  200030  0FFF               	dw	4095
  5743                           
  5744                           ;Config register IDLOC25 @ 0x200032
  5745                           ;	unspecified, using default values
  5746  200032                     	org	2097202
  5747  200032  0FFF               	dw	4095
  5748                           
  5749                           ;Config register IDLOC26 @ 0x200034
  5750                           ;	unspecified, using default values
  5751  200034                     	org	2097204
  5752  200034  0FFF               	dw	4095
  5753                           
  5754                           ;Config register IDLOC27 @ 0x200036
  5755                           ;	unspecified, using default values
  5756  200036                     	org	2097206
  5757  200036  0FFF               	dw	4095
  5758                           
  5759                           ;Config register IDLOC28 @ 0x200038
  5760                           ;	unspecified, using default values
  5761  200038                     	org	2097208
  5762  200038  0FFF               	dw	4095
  5763                           
  5764                           ;Config register IDLOC29 @ 0x20003A
  5765                           ;	unspecified, using default values
  5766  20003A                     	org	2097210
  5767  20003A  0FFF               	dw	4095
  5768                           
  5769                           ;Config register IDLOC30 @ 0x20003C
  5770                           ;	unspecified, using default values
  5771  20003C                     	org	2097212
  5772  20003C  0FFF               	dw	4095
  5773                           
  5774                           ;Config register IDLOC31 @ 0x20003E
  5775                           ;	unspecified, using default values
  5776  20003E                     	org	2097214
  5777  20003E  0FFF               	dw	4095
  5778                           
  5779                           	psect	config
  5780                           
  5781                           ;Config register CONFIG1 @ 0x300000
  5782                           ;	External Oscillator Selection
  5783                           ;	FEXTOSC = OFF, Oscillator not enabled
  5784                           ;	Reset Oscillator Selection
  5785                           ;	RSTOSC = HFINTOSC_64MHZ, HFINTOSC with HFFRQ = 64 MHz and CDIV = 1:1
  5786  300000                     	org	3145728
  5787  300000  8C                 	db	140
  5788                           
  5789                           ;Config register CONFIG2 @ 0x300001
  5790                           ;	Clock out Enable bit
  5791                           ;	CLKOUTEN = OFF, CLKOUT function is disabled
  5792                           ;	PRLOCKED One-Way Set Enable bit
  5793                           ;	PR1WAY = ON, PRLOCKED bit can be cleared and set only once
  5794                           ;	Clock Switch Enable bit
  5795                           ;	CSWEN = ON, Writing to NOSC and NDIV is allowed
  5796                           ;	Fail-Safe Clock Monitor Enable bit
  5797                           ;	FCMEN = ON, Fail-Safe Clock Monitor enabled
  5798  300001                     	org	3145729
  5799  300001  FF                 	db	255
  5800                           
  5801                           ;Config register CONFIG3 @ 0x300002
  5802                           ;	MCLR Enable bit
  5803                           ;	MCLRE = EXTMCLR, If LVP = 0, MCLR pin is MCLR; If LVP = 1, RE3 pin function is MCLR
  5804                           ;	Power-up timer selection bits
  5805                           ;	PWRTS = PWRT_OFF, PWRT is disabled
  5806                           ;	Multi-vector enable bit
  5807                           ;	MVECEN = OFF, Interrupt contoller does not use vector table to prioritze interrupts
  5808                           ;	IVTLOCK bit One-way set enable bit
  5809                           ;	IVT1WAY = ON, IVTLOCKED bit can be cleared and set only once
  5810                           ;	Low Power BOR Enable bit
  5811                           ;	LPBOREN = OFF, Low-Power BOR disabled
  5812                           ;	Brown-out Reset Enable bits
  5813                           ;	BOREN = SBORDIS, Brown-out Reset enabled , SBOREN bit is ignored
  5814  300002                     	org	3145730
  5815  300002  F7                 	db	247
  5816                           
  5817                           ;Config register CONFIG4 @ 0x300003
  5818                           ;	Brown-out Reset Voltage Selection bits
  5819                           ;	BORV = VBOR_1P9, Brown-out Reset Voltage (VBOR) set to 1.9V
  5820                           ;	ZCD Disable bit
  5821                           ;	ZCD = OFF, ZCD module is disabled. ZCD can be enabled by setting the ZCDSEN bit of ZCD
      +                          CON
  5822                           ;	PPSLOCK bit One-Way Set Enable bit
  5823                           ;	PPS1WAY = ON, PPSLOCKED bit can be cleared and set only once; PPS registers remain loc
      +                          ked after one clear/set cycle
  5824                           ;	Stack Full/Underflow Reset Enable bit
  5825                           ;	STVREN = ON, Stack full/underflow will cause Reset
  5826                           ;	Low Voltage Programming Enable bit
  5827                           ;	LVP = ON, Low voltage programming enabled. MCLR/VPP pin function is MCLR. MCLRE config
      +                          uration bit is ignored
  5828                           ;	Extended Instruction Set Enable bit
  5829                           ;	XINST = OFF, Extended Instruction Set and Indexed Addressing Mode disabled
  5830  300003                     	org	3145731
  5831  300003  FF                 	db	255
  5832                           
  5833                           ;Config register CONFIG5 @ 0x300004
  5834                           ;	WDT Period selection bits
  5835                           ;	WDTCPS = WDTCPS_31, Divider ratio 1:65536; software control of WDTPS
  5836                           ;	WDT operating mode
  5837                           ;	WDTE = OFF, WDT Disabled; SWDTEN is ignored
  5838  300004                     	org	3145732
  5839  300004  9F                 	db	159
  5840                           
  5841                           ;Config register CONFIG6 @ 0x300005
  5842                           ;	WDT Window Select bits
  5843                           ;	WDTCWS = WDTCWS_7, window always open (100%); software control; keyed access not requi
      +                          red
  5844                           ;	WDT input clock selector
  5845                           ;	WDTCCS = SC, Software Control
  5846  300005                     	org	3145733
  5847  300005  FF                 	db	255
  5848                           
  5849                           ;Config register CONFIG7 @ 0x300006
  5850                           ;	Boot Block Size selection bits
  5851                           ;	BBSIZE = BBSIZE_512, Boot Block size is 512 words
  5852                           ;	Boot Block enable bit
  5853                           ;	BBEN = OFF, Boot block disabled
  5854                           ;	Storage Area Flash enable bit
  5855                           ;	SAFEN = OFF, SAF disabled
  5856                           ;	Background Debugger
  5857                           ;	DEBUG = OFF, Background Debugger disabled
  5858  300006                     	org	3145734
  5859  300006  FF                 	db	255
  5860                           
  5861                           ;Config register CONFIG8 @ 0x300007
  5862                           ;	Boot Block Write Protection bit
  5863                           ;	WRTB = OFF, Boot Block not Write protected
  5864                           ;	Configuration Register Write Protection bit
  5865                           ;	WRTC = OFF, Configuration registers not Write protected
  5866                           ;	Data EEPROM Write Protection bit
  5867                           ;	WRTD = OFF, Data EEPROM not Write protected
  5868                           ;	SAF Write protection bit
  5869                           ;	WRTSAF = OFF, SAF not Write Protected
  5870                           ;	Application Block write protection bit
  5871                           ;	WRTAPP = OFF, Application Block not write protected
  5872  300007                     	org	3145735
  5873  300007  FF                 	db	255
  5874                           
  5875                           ; Padding undefined space
  5876  300008                     	org	3145736
  5877  300008  FF                 	db	255
  5878                           
  5879                           ;Config register CONFIG10 @ 0x300009
  5880                           ;	PFM and Data EEPROM Code Protection bit
  5881                           ;	CP = OFF, PFM and Data EEPROM code protection disabled
  5882  300009                     	org	3145737
  5883  300009  FF                 	db	255
  5884                           tosu	equ	0x4FF
  5885                           tosh	equ	0x4FE
  5886                           tosl	equ	0x4FD
  5887                           stkptr	equ	0x4FC
  5888                           pclatu	equ	0x4FB
  5889                           pclath	equ	0x4FA
  5890                           pcl	equ	0x4F9
  5891                           tblptru	equ	0x4F8
  5892                           tblptrh	equ	0x4F7
  5893                           tblptrl	equ	0x4F6
  5894                           tablat	equ	0x4F5
  5895                           prodh	equ	0x4F4
  5896                           prodl	equ	0x4F3
  5897                           indf0	equ	0x4EF
  5898                           postinc0	equ	0x4EE
  5899                           postdec0	equ	0x4ED
  5900                           preinc0	equ	0x4EC
  5901                           plusw0	equ	0x4EB
  5902                           fsr0h	equ	0x4EA
  5903                           fsr0l	equ	0x4E9
  5904                           wreg	equ	0x4E8
  5905                           indf1	equ	0x4E7
  5906                           postinc1	equ	0x4E6
  5907                           postdec1	equ	0x4E5
  5908                           preinc1	equ	0x4E4
  5909                           plusw1	equ	0x4E3
  5910                           fsr1h	equ	0x4E2
  5911                           fsr1l	equ	0x4E1
  5912                           bsr	equ	0x4E0
  5913                           indf2	equ	0x4DF
  5914                           postinc2	equ	0x4DE
  5915                           postdec2	equ	0x4DD
  5916                           preinc2	equ	0x4DC
  5917                           plusw2	equ	0x4DB
  5918                           fsr2h	equ	0x4DA
  5919                           fsr2l	equ	0x4D9
  5920                           status	equ	0x4D8

Data Sizes:
    Strings     0
    Constant    73
    Data        0
    BSS         271
    Persistent  3
    Stack       0

Auto Spaces:
    Space          Size  Autos    Used
    COMRAM           95     78      84
    BANK5           160    106     118
    BANK6           256      0     256
    BANK7           256      0       0
    BANK8           256      0       0
    BANK9           256      0       0
    BANK10          256      0       0
    BANK11          256      0       0
    BANK12          256      0       0
    BANK13          256      0       0
    BANK14          256      0       0
    BANK15          256      0       0
    BANK16          256      0       0
    BANK17          256      0       0
    BANK18          256      0       0
    BANK19          256      0       0
    BANK20          256      0       0
    BANK21          256      0       0
    BANK22          256      0       0
    BANK23          256      0       0
    BANK24          256      0       0
    BANK25          256      0       0
    BANK26          256      0       0
    BANK27          256      0       0
    BANK28          256      0       0
    BANK29          256      0       0
    BANK30          256      0       0
    BANK31          256      0       0
    BANK32          256      0       0
    BANK33          256      0       0
    BANK34          256      0       0
    BANK35          256      0       0
    BANK36          256      0       0

Pointer List with Targets:

    __rem_pio2f@y	PTR  size(2) Largest target is 4
		 -> sinf@y(BANK5[4]), 

    TMR2_SetInterruptHandler@InterruptHandler	PTR FTN()void  size(3) Largest target is 1
		 -> updateDac(), TMR2_DefaultInterruptHandler(), 

    TMR2_InterruptHandler	PTR FTN()void  size(3) Largest target is 1
		 -> updateDac(), Absolute function(), TMR2_DefaultInterruptHandler(), 


Critical Paths under _main in COMRAM

    _main->_sinf
    _sinf->___rem_pio2f
    ___rem_pio2f->___fltol
    ___fltol->___fladd
    ___flsub->___fladd
    ___flneg->___cosdf
    ___cosdf->___fladd
    ___flmul->___xxtofl
    ___fladd->___flmul
    _TMR2_Initialize->_TMR2_SetInterruptHandler

Critical Paths under _INTERRUPT_InterruptManager in COMRAM

    _updateDac->_dac
    _dac->_SPI1_ExchangeByte

Critical Paths under _main in BANK5

    _main->_sinf
    _sinf->___rem_pio2f
    ___sindf->___flneg
    ___rem_pio2f->___flneg
    ___flneg->___cosdf

Critical Paths under _INTERRUPT_InterruptManager in BANK5

    None.

Critical Paths under _main in BANK6

    None.

Critical Paths under _INTERRUPT_InterruptManager in BANK6

    None.

Critical Paths under _main in BANK7

    None.

Critical Paths under _INTERRUPT_InterruptManager in BANK7

    None.

Critical Paths under _main in BANK8

    None.

Critical Paths under _INTERRUPT_InterruptManager in BANK8

    None.

Critical Paths under _main in BANK9

    None.

Critical Paths under _INTERRUPT_InterruptManager in BANK9

    None.

Critical Paths under _main in BANK10

    None.

Critical Paths under _INTERRUPT_InterruptManager in BANK10

    None.

Critical Paths under _main in BANK11

    None.

Critical Paths under _INTERRUPT_InterruptManager in BANK11

    None.

Critical Paths under _main in BANK12

    None.

Critical Paths under _INTERRUPT_InterruptManager in BANK12

    None.

Critical Paths under _main in BANK13

    None.

Critical Paths under _INTERRUPT_InterruptManager in BANK13

    None.

Critical Paths under _main in BANK14

    None.

Critical Paths under _INTERRUPT_InterruptManager in BANK14

    None.

Critical Paths under _main in BANK15

    None.

Critical Paths under _INTERRUPT_InterruptManager in BANK15

    None.

Critical Paths under _main in BANK16

    None.

Critical Paths under _INTERRUPT_InterruptManager in BANK16

    None.

Critical Paths under _main in BANK17

    None.

Critical Paths under _INTERRUPT_InterruptManager in BANK17

    None.

Critical Paths under _main in BANK18

    None.

Critical Paths under _INTERRUPT_InterruptManager in BANK18

    None.

Critical Paths under _main in BANK19

    None.

Critical Paths under _INTERRUPT_InterruptManager in BANK19

    None.

Critical Paths under _main in BANK20

    None.

Critical Paths under _INTERRUPT_InterruptManager in BANK20

    None.

Critical Paths under _main in BANK21

    None.

Critical Paths under _INTERRUPT_InterruptManager in BANK21

    None.

Critical Paths under _main in BANK22

    None.

Critical Paths under _INTERRUPT_InterruptManager in BANK22

    None.

Critical Paths under _main in BANK23

    None.

Critical Paths under _INTERRUPT_InterruptManager in BANK23

    None.

Critical Paths under _main in BANK24

    None.

Critical Paths under _INTERRUPT_InterruptManager in BANK24

    None.

Critical Paths under _main in BANK25

    None.

Critical Paths under _INTERRUPT_InterruptManager in BANK25

    None.

Critical Paths under _main in BANK26

    None.

Critical Paths under _INTERRUPT_InterruptManager in BANK26

    None.

Critical Paths under _main in BANK27

    None.

Critical Paths under _INTERRUPT_InterruptManager in BANK27

    None.

Critical Paths under _main in BANK28

    None.

Critical Paths under _INTERRUPT_InterruptManager in BANK28

    None.

Critical Paths under _main in BANK29

    None.

Critical Paths under _INTERRUPT_InterruptManager in BANK29

    None.

Critical Paths under _main in BANK30

    None.

Critical Paths under _INTERRUPT_InterruptManager in BANK30

    None.

Critical Paths under _main in BANK31

    None.

Critical Paths under _INTERRUPT_InterruptManager in BANK31

    None.

Critical Paths under _main in BANK32

    None.

Critical Paths under _INTERRUPT_InterruptManager in BANK32

    None.

Critical Paths under _main in BANK33

    None.

Critical Paths under _INTERRUPT_InterruptManager in BANK33

    None.

Critical Paths under _main in BANK34

    None.

Critical Paths under _INTERRUPT_InterruptManager in BANK34

    None.

Critical Paths under _main in BANK35

    None.

Critical Paths under _INTERRUPT_InterruptManager in BANK35

    None.

Critical Paths under _main in BANK36

    None.

Critical Paths under _INTERRUPT_InterruptManager in BANK36

    None.

Call Graph Tables:

 ---------------------------------------------------------------------------------
 (Depth) Function   	        Calls       Base Space   Used Autos Params    Refs
 ---------------------------------------------------------------------------------
 (0) _main                                                 8     8      0   83906
                                             98 BANK5      8     8      0
               _ADCC_StartConversion
                          _SPI1_Open
                  _SYSTEM_Initialize
           _TMR2_SetInterruptHandler
                            ___fladd
                            ___flmul
                            ___fltol
                           ___xxtofl
                               _sinf
 ---------------------------------------------------------------------------------
 (1) _sinf                                                38    34      4   69196
                                             74 COMRAM     4     4      0
                                             64 BANK5     34    30      4
                            ___cosdf
                            ___fladd
                            ___flneg
                            ___flsub
                        ___rem_pio2f
                            ___sindf
 ---------------------------------------------------------------------------------
 (2) ___sindf                                             32    28      4   14122
                                             28 BANK5     32    28      4
                            ___fladd
                            ___flmul
                            ___flneg (ARG)
 ---------------------------------------------------------------------------------
 (2) ___rem_pio2f                                         44    38      6   24285
                                             70 COMRAM     4     4      0
                                             28 BANK5     36    30      6
                            ___fladd
                            ___flmul
                            ___flneg
                            ___flsub
                            ___fltol
                           ___xxtofl
                              _fabsf
 ---------------------------------------------------------------------------------
 (3) _fabsf                                                8     4      4     199
                                              5 COMRAM     8     4      4
 ---------------------------------------------------------------------------------
 (3) ___xxtofl                                            14    10      4     550
                                              5 COMRAM    14    10      4
 ---------------------------------------------------------------------------------
 (3) ___fltol                                             10     6      4     457
                                             60 COMRAM    10     6      4
                            ___fladd (ARG)
                            ___flmul (ARG)
                           ___xxtofl (ARG)
 ---------------------------------------------------------------------------------
 (3) ___flsub                                              8     0      8    7967
                                             60 COMRAM     8     0      8
                            ___fladd
                            ___flmul (ARG)
 ---------------------------------------------------------------------------------
 (3) ___flneg                                              4     0      4     653
                                             24 BANK5      4     0      4
                            ___cosdf (ARG)
                            ___fladd (ARG)
 ---------------------------------------------------------------------------------
 (2) ___cosdf                                             28    24      4   14116
                                             60 COMRAM     4     0      4
                                              0 BANK5     24    24      0
                            ___fladd
                            ___flmul
 ---------------------------------------------------------------------------------
 (3) ___flmul                                             25    17      8    6473
                                             19 COMRAM    25    17      8
                           ___xxtofl (ARG)
 ---------------------------------------------------------------------------------
 (3) ___fladd                                             16     8      8    6682
                                             44 COMRAM    16     8      8
                            ___flmul (ARG)
                           ___xxtofl (ARG)
 ---------------------------------------------------------------------------------
 (1) _SYSTEM_Initialize                                    0     0      0     174
                    _ADCC_Initialize
               _INTERRUPT_Initialize
              _OSCILLATOR_Initialize
             _PIN_MANAGER_Initialize
                     _PMD_Initialize
                    _SPI1_Initialize
                    _TMR2_Initialize
 ---------------------------------------------------------------------------------
 (2) _TMR2_Initialize                                      0     0      0     174
           _TMR2_SetInterruptHandler
 ---------------------------------------------------------------------------------
 (1) _TMR2_SetInterruptHandler                             3     0      3     174
                                              5 COMRAM     3     0      3
 ---------------------------------------------------------------------------------
 (2) _SPI1_Initialize                                      0     0      0       0
 ---------------------------------------------------------------------------------
 (2) _PMD_Initialize                                       0     0      0       0
 ---------------------------------------------------------------------------------
 (2) _PIN_MANAGER_Initialize                               0     0      0       0
 ---------------------------------------------------------------------------------
 (2) _OSCILLATOR_Initialize                                0     0      0       0
 ---------------------------------------------------------------------------------
 (2) _INTERRUPT_Initialize                                 0     0      0       0
 ---------------------------------------------------------------------------------
 (2) _ADCC_Initialize                                      0     0      0       0
 ---------------------------------------------------------------------------------
 (1) _SPI1_Open                                            2     2      0     110
                                              5 COMRAM     2     2      0
 ---------------------------------------------------------------------------------
 (1) _ADCC_StartConversion                                 1     1      0      22
                                              5 COMRAM     1     1      0
 ---------------------------------------------------------------------------------
 Estimated maximum stack depth 3
 ---------------------------------------------------------------------------------
 (Depth) Function   	        Calls       Base Space   Used Autos Params    Refs
 ---------------------------------------------------------------------------------
 (5) _INTERRUPT_InterruptManager                           2     2      0     142
                                              3 COMRAM     2     2      0
                           _TMR2_ISR
 ---------------------------------------------------------------------------------
 (6) _TMR2_ISR                                             0     0      0     142
                      _TMR2_CallBack
 ---------------------------------------------------------------------------------
 (7) _TMR2_CallBack                                        0     0      0     142
                   Absolute function *
       _TMR2_DefaultInterruptHandler *
                          _updateDac *
 ---------------------------------------------------------------------------------
 (8) _updateDac                                            0     0      0     142
                                _dac
 ---------------------------------------------------------------------------------
 (9) _dac                                                  2     0      2     142
                                              1 COMRAM     2     0      2
                  _SPI1_ExchangeByte
 ---------------------------------------------------------------------------------
 (10) _SPI1_ExchangeByte                                   1     1      0      22
                                              0 COMRAM     1     1      0
 ---------------------------------------------------------------------------------
 (8) _TMR2_DefaultInterruptHandler                         0     0      0       0
 ---------------------------------------------------------------------------------
 (8) Absolute function(Fake)                               0     0      0       0
 ---------------------------------------------------------------------------------
 Estimated maximum stack depth 10
 ---------------------------------------------------------------------------------

 Call Graph Graphs:

 _main (ROOT)
   _ADCC_StartConversion
   _SPI1_Open
   _SYSTEM_Initialize
     _ADCC_Initialize
     _INTERRUPT_Initialize
     _OSCILLATOR_Initialize
     _PIN_MANAGER_Initialize
     _PMD_Initialize
     _SPI1_Initialize
     _TMR2_Initialize
       _TMR2_SetInterruptHandler
   _TMR2_SetInterruptHandler
   ___fladd
     ___flmul (ARG)
       ___xxtofl (ARG)
     ___xxtofl (ARG)
   ___flmul
   ___fltol
     ___fladd (ARG)
     ___flmul (ARG)
     ___xxtofl (ARG)
   ___xxtofl
   _sinf
     ___cosdf
       ___fladd
       ___flmul
     ___fladd
     ___flneg
       ___cosdf (ARG)
       ___fladd (ARG)
     ___flsub
       ___fladd
       ___flmul (ARG)
     ___rem_pio2f
       ___fladd
       ___flmul
       ___flneg
       ___flsub
       ___fltol
       ___xxtofl
       _fabsf
     ___sindf
       ___fladd
       ___flmul
       ___flneg (ARG)

 _INTERRUPT_InterruptManager (ROOT)
   _TMR2_ISR
     _TMR2_CallBack
       Absolute function(Fake) *
       _TMR2_DefaultInterruptHandler *
       _updateDac *
         _dac
           _SPI1_ExchangeByte

 Address spaces:
Name               Size   Autos  Total    Cost      Usage
BIGRAM            1FFF      0       0      69        0.0%
EEDATA             400      0       0       0        0.0%
BITBIGSFRllhhhl    161      0       0      88        0.0%
BITBIGSFR_1        100      0       0      68        0.0%
BITBANK36          100      0       0      66        0.0%
BANK36             100      0       0      67        0.0%
BITBANK35          100      0       0      64        0.0%
BANK35             100      0       0      65        0.0%
BITBANK34          100      0       0      62        0.0%
BANK34             100      0       0      63        0.0%
BITBANK33          100      0       0      60        0.0%
BANK33             100      0       0      61        0.0%
BITBANK32          100      0       0      58        0.0%
BANK32             100      0       0      59        0.0%
BITBANK31          100      0       0      56        0.0%
BANK31             100      0       0      57        0.0%
BITBANK30          100      0       0      54        0.0%
BANK30             100      0       0      55        0.0%
BITBANK29          100      0       0      52        0.0%
BANK29             100      0       0      53        0.0%
BITBANK28          100      0       0      50        0.0%
BANK28             100      0       0      51        0.0%
BITBANK27          100      0       0      48        0.0%
BANK27             100      0       0      49        0.0%
BITBANK26          100      0       0      46        0.0%
BANK26             100      0       0      47        0.0%
BITBANK25          100      0       0      44        0.0%
BANK25             100      0       0      45        0.0%
BITBANK24          100      0       0      42        0.0%
BANK24             100      0       0      43        0.0%
BITBANK23          100      0       0      40        0.0%
BANK23             100      0       0      41        0.0%
BITBANK22          100      0       0      38        0.0%
BANK22             100      0       0      39        0.0%
BITBANK21          100      0       0      36        0.0%
BANK21             100      0       0      37        0.0%
BITBANK20          100      0       0      34        0.0%
BANK20             100      0       0      35        0.0%
BITBANK19          100      0       0      32        0.0%
BANK19             100      0       0      33        0.0%
BITBANK18          100      0       0      30        0.0%
BANK18             100      0       0      31        0.0%
BITBANK17          100      0       0      28        0.0%
BANK17             100      0       0      29        0.0%
BITBANK16          100      0       0      26        0.0%
BANK16             100      0       0      27        0.0%
BITBANK15          100      0       0      24        0.0%
BANK15             100      0       0      25        0.0%
BITBANK14          100      0       0      22        0.0%
BANK14             100      0       0      23        0.0%
BITBANK13          100      0       0      20        0.0%
BANK13             100      0       0      21        0.0%
BITBANK12          100      0       0      18        0.0%
BANK12             100      0       0      19        0.0%
BITBANK11          100      0       0      16        0.0%
BANK11             100      0       0      17        0.0%
BITBANK10          100      0       0      14        0.0%
BANK10             100      0       0      15        0.0%
BITBANK9           100      0       0      12        0.0%
BANK9              100      0       0      13        0.0%
BITBANK8           100      0       0      10        0.0%
BANK8              100      0       0      11        0.0%
BITBANK7           100      0       0       8        0.0%
BANK7              100      0       0       9        0.0%
BITBANK6           100      0       0       6        0.0%
BANK6              100      0     100       7      100.0%
BITBIGSFRhlllll     B1      0       0      83        0.0%
BITBANK5            A0      0       0       4        0.0%
BANK5               A0     6A      76       5       73.8%
BITBIGSFRllhhhh     98      0       0      84        0.0%
BITBIGSFRhllhhh     74      0       0      75        0.0%
BITBIGSFRllll       60      0       0      97        0.0%
BITCOMRAM           5F      0       0       0        0.0%
COMRAM              5F     4E      54       1       88.4%
BITBIGSFRllhhhl     52      0       0      86        0.0%
BITBIGSFRhhhhh      29      0       0      70        0.0%
BITBIGSFRlllhhh     1F      0       0      91        0.0%
BITBIGSFRllhhhl     1A      0       0      85        0.0%
BITBIGSFRlllhhl     17      0       0      95        0.0%
BITBIGSFRhlh         F      0       0      74        0.0%
BITBIGSFRhhll        C      0       0      73        0.0%
BITBIGSFRhhhhl       A      0       0      71        0.0%
BITBIGSFRhlllll      5      0       0      81        0.0%
BITBIGSFRhlllll      3      0       0      80        0.0%
BITBIGSFRhllhhl      3      0       0      76        0.0%
BITBIGSFRhllllh      3      0       0      79        0.0%
BITBIGSFRhlllh       3      0       0      78        0.0%
BITBIGSFRhllhl       3      0       0      77        0.0%
BITBIGSFRlllhhh      2      0       0      92        0.0%
BITBIGSFRlllhhh      2      0       0      93        0.0%
BITBIGSFRhhhll       2      0       0      72        0.0%
BITBIGSFRhlllll      1      0       0      82        0.0%
BITBIGSFRlllhhl      1      0       0      94        0.0%
BITBIGSFRllhhhl      1      0       0      87        0.0%
BITBIGSFRlllhl       1      0       0      96        0.0%
BITBIGSFRllhhlh      1      0       0      89        0.0%
BITBIGSFRllhl        1      0       0      90        0.0%
BIGSFR_1             0      0       0     200        0.0%
BIGSFR               0      0       0     200        0.0%
BITSFR_6             0      0       0     200        0.0%
SFR_6                0      0       0     200        0.0%
BITSFR_5             0      0       0     200        0.0%
SFR_5                0      0       0     200        0.0%
BITSFR_4             0      0       0     200        0.0%
SFR_4                0      0       0     200        0.0%
BITSFR_3             0      0       0     200        0.0%
SFR_3                0      0       0     200        0.0%
BITSFR_2             0      0       0     200        0.0%
SFR_2                0      0       0     200        0.0%
BITSFR_1             0      0       0     200        0.0%
SFR_1                0      0       0     200        0.0%
BITSFR               0      0       0     200        0.0%
SFR                  0      0       0     200        0.0%
STACK                0      0       0       2        0.0%
NULL                 0      0       0       0        0.0%
ABS                  0      0     1CA      98        0.0%
DATA                 0      0     1CA       3        0.0%
CODE                 0      0       0       0        0.0%


Microchip Technology PIC18 Macro Assembler V2.36 build 20220127204148 
Symbol Table                                                                                   Thu Feb 02 10:36:06 2023

                       _SPI1_ExchangeByte 44DE          __end_of_TMR2_SetInterruptHandler 4592  
                                       _i 05D2                                        _C0 2536  
                                      _C1 2532                                        _C2 252E  
                                      _C3 252A                                        l37 4486  
                                      l83 4590                                        _S1 2512  
                                      _S2 250E                                        _S3 250A  
                                      _S4 2506                        ?_SPI1_ExchangeByte 0501  
                                     l131 453C                                       l134 4558  
                                     l240 428A                                       l137 44DC  
                                     l254 459C                                       l292 41D4  
                                     l380 3FDA                                       l382 3FF2  
                                     l383 3FF2                                       l464 42E6  
                                     l288 4572                                       l467 4582  
                                     l822 43E6                                       l845 40FE  
                                     _PR2 000323                                       _dac 4500  
                     ??_SPI1_ExchangeByte 0501                           _TMR2_Initialize 4456  
                                     prod 0004F3                                       tosl 0004FD  
                                     wreg 0004E8                              ___flmul@aexp 0521  
                            ___flmul@bexp 0526                              ___flmul@sign 0520  
                            ___flmul@temp 052B                              ___flmul@prod 0527  
                            ___fltol@exp1 0546                                      ?_dac 0502  
                                    l1102 33B6                                      l1103 33A4  
                                    l1210 3E0A                                      l1203 3D72  
                                    l1118 432C                                      l1206 3ECE  
                                    l1311 4454                                      l1240 2B04  
                                    l1217 3E66                                      l1162 3562  
                                    l1306 3B1C                                      l1171 37F4  
                                    l1076 31CC                                      l1172 37E2  
                                    l1236 254C                                      l1093 32E6  
                                    l1085 349C                                      l1077 31BA  
                                    l1078 3180                                      l1166 38EA  
                                    l1169 377C                                      l1274 3D1A  
                                    l1179 38AC                                      l1292 2FDC  
                                    l3301 3178                                      l3221 2FFA  
                                    l1294 2DF0                                      l3071 4580  
                                    l3311 31AE                                      l3303 318E  
                                    l3223 300A                                      l3231 3034  
                                    l3215 2FDE                                      l3401 3460  
                                    l3321 31FE                                      l3313 31B8  
                                    l3305 319A                                      l3241 3064  
                                    l3233 3044                                      l3225 301A  
                                    l3217 2FEA                                      l3067 4576  
                                    l3411 348A                                      l3403 346E  
                                    l3331 323A                                      l3323 320E  
                                    l3315 31DA                                      l3307 319E  
                                    l3251 30A4                                      l3243 3072  
                                    l3235 304A                                      l3227 302A  
                                    l3219 2FF8                                      l3069 457C  
                                    l3413 348C                                      l3405 3474  
                                    l3341 3280                                      l3333 3248  
                                    l3325 321C                                      l3317 31EA  
                                    l3309 31AC                                      l3261 30DE  
                                    l3253 30A6                                      l3245 3074  
                                    l3237 305C                                      l3229 302C  
                                    l3501 376C                                      l3421 34B8  
                                    l2701 43D6                                      l3407 3476  
                                    l3351 32FC                                      l3343 32B4  
                                    l3335 324A                                      l3327 322A  
                                    l3271 30F2                                      l3263 30E2  
                                    l3247 3084                                      l3255 30AE  
                                    l3239 305E                                      l3511 37AC  
                                    l3503 377A                                      l3431 34F0  
                                    l3423 34BA                                      l2711 4024  
                                    l3409 347C                                      l3361 3338  
                                    l3353 330C                                      l3345 32B6  
                                    l3337 3254                                      l3329 3236  
                                    l3281 3106                                      l3273 30F6  
                                    l3265 30E6                                      l3257 30BE  
                                    l3249 3094                                      l3521 381E  
                                    l3513 37DA                                      l3505 378C  
                                    l3441 351C                                      l3433 3500  
                                    l3425 34CA                                      l3417 349E  
                                    l2721 4072                                      l2713 404E  
                                    l2705 3FFA                                      l3601 2F62  
                                    l2811 4480                                      l2803 4456  
                                    l3371 3364                                      l3363 333A  
                                    l3347 32C6                                      l3339 325A  
                                    l3291 311A                                      l3283 310A  
                                    l3275 30FA                                      l3267 30EA  
                                    l3259 30D0                                      l3531 3894  
                                    l3523 3848                                      l3507 379A  
                                    l3451 3572                                      l3443 352C  
                                    l3435 3506                                      l3427 34DA  
                                    l3419 34AA                                      l2731 409E  
                                    l2715 4050                                      l2707 4010  
                                    l3603 2F76                                      l2821 41D6  
                                    l2549 4584                                      l2805 446C  
                                    l3381 339C                                      l3365 3348  
                                    l3357 3320                                      l3373 3366  
                                    l3349 32D6                                      l3285 310E  
                                    l3277 30FE                                      l3269 30EE  
                                    l3293 311E                                      l3533 38B0  
                                    l3541 38D6                                      l3517 3804  
                                    l3525 384C                                      l3509 379E  
                                    l3461 35B0                                      l3453 3582  
                                    l3445 353C                                      l3437 350C  
                                    l3429 34EA                                      l2741 40CE  
                                    l2717 4060                                      l3701 2A04  
                                    l3621 25BC                      _ADCC_StartConversion 4574  
                                    l2831 425C                                      l2823 41F6  
                                    l2807 446E                                      l3391 341A  
                                    l3367 3350                                      l3359 332A  
                                    l3375 3374                                      l3295 3122  
                                    l3287 3112                                      l3279 3102  
                                    l3543 38DA                                      l3535 38C0  
                                    l3527 3866                                      l3519 3810  
                                    l3471 360A                                      l3463 35CA  
                                    l3447 354C                                      l3439 351A  
                                    l2743 40DE                                      l2727 408A  
                                    l2719 4064                                      l2751 3D2E  
                                    l3631 262C                                      l3623 25D2  
                                    l3615 256C                                      l2817 459A  
                                    l2841 426A                                      l2833 425E  
                                    l2825 41F8                                      l2809 4470  
                                    l3385 33C6                                      l3393 341C  
                                    l3377 3378                                      l3369 3354  
                                    l3297 314C                                      l3289 3116  
                                    l3537 38CE                                      l3529 387A  
                                    l3481 3658                                      l3473 3618  
                                    l3465 35D6                                      l3457 3596  
                                    l3449 3552                                      l2745 40EE  
                                    l2737 40B2                                      l2729 4094  
                                    l2761 3DAC                                      l2753 3D3C  
                                    l3609 2FB4                                      l3561 2B06  
                                    l3553 38EC                                      l3705 2A2C  
                                    l3633 264A                                      l3625 25E6  
                                    l3617 259A                                      l2851 453E  
                                    l2843 426C                                      l2835 4260  
                                    l2827 420C                                      l2819 44BA  
                                    l2931 452C                                      l3395 342C  
                                    l3387 33D2                                      l3379 3386  
                                    l3299 3168                                      l3539 38D0  
                                    l3491 36D6                                      l3483 3676  
                                    l3475 3628                                      l3467 35F2  
                                    l3459 35A6                                      l3547 42E8  
                                    l2739 40BE                                      l2771 3E00  
                                    l2763 3DB4                                      l2755 3D82  
                                    l3571 2BDA                                      l3563 2B26  
                                    l3715 2AA4                                      l3651 273A  
                                    l3635 265C                                      l3643 26CC  
                                    l3619 259E                                      l2941 4112  
                                    l2853 428C                                      l2845 426E  
                                    l2837 4262                                      l2829 4216  
                                    l2933 4530                                      l2925 4520  
                                    l3397 343C                                      l3389 33E0  
                                    l3493 3700                                      l3485 3686  
                                    l3477 3638                                      l3469 35FE  
                                    l3557 3B1E                                      l3549 42F8  
                                    l2781 3E76                                      l2773 3E3C  
                                    l2765 3DC0                                      l2757 3D98  
                                    l2749 3D1E                                      l3581 2D06  
                                    l3573 2BF8                                      l3565 2B84  
                                    l3709 2A68                                      l3661 2814  
                                    l3653 2786                                      l3645 2700  
                                    l3637 2690                                      l3629 260E  
                                    l3741 3EDC                                      l2943 41D2  
                                    l2847 4270                                      l2839 4268  
                                    l2855 455A                                      l2935 4534  
                                    l2927 4524                                      l3399 345C  
                                    l3495 3736                                      l3487 36A6  
                                    l3479 3648                                      l2791 3EBE  
                                    l2783 3E7A                                      l2775 3E48  
                                    l2767 3DF2                                      l3583 2D72  
                                    l3575 2C1C                                      l3591 2DFC  
                                    l3567 2BCC                                      l3663 2832  
                                    l3655 27CE                                      l3751 3EE6  
                                    l3743 3EDE                                      l3735 3ED0  
                                    l2849 4276                                      l2857 4570  
                                    l2937 4538                                      l2929 4528  
                                    l3497 3744                                      l3489 36B6  
                                    l2697 43AE                                      l2785 3E9E  
                                    l2777 3E56                                      l2769 3DF4  
                                    l3593 2E20                                      l3585 2D86  
                                    l3577 2C88                                      l3681 28C6  
                                    l3665 2844                                      l3673 287C  
                                    l3649 2728                                      l3761 3FDC  
                                    l3753 3F2A                                      l3745 3EE0  
                                    l3737 3ED4                                      l2939 4102  
                                    l3499 3762                                      l2699 43C6  
                                    l2787 3EAE                                      l2779 3E74  
                                    l2795 4422                                      l3595 2E8C  
                                    l3587 2DD4                                      l3579 2CAE  
                                    l3691 2970                                      l3683 28FE  
                                    l3659 27F6                                      l3763 3FE2  
                                    l3755 3F4E                                      l3739 3ED6  
                                    l2789 3EBC                                      l2797 4442  
                                    l3597 2EB2                                      l3685 2932  
                                    l3757 3FC8                                      l2799 4444  
                                    l3599 2F0A                                      l3855 2ACA  
                                    l3695 29A8                                      l3679 28B4  
                                    l3759 3FCA                                      l3857 2AF6  
                                    l3697 29DC                                      l3689 295A  
                                    l3859 2AD8                                      u2100 2FF8  
                                    u2101 2FF4                                      u2110 300A  
                                    u2111 3006                                      u2200 3164  
                                    u2120 301A                                      u2201 315E  
                                    u2121 3016                                      u2210 3166  
                                    u2130 305C                                      u2131 3058  
                                    u2300 3280                                      u2220 318E  
                                    u2140 3072                                      u2301 327C  
                                    u2221 318A                                      u2141 306E  
                                    _LATA 0004BE                                      u2310 32C6  
                                    u2230 31AC                                      u2150 3084  
                                    _LATB 0004BF                                      u2311 32C2  
                                    u2231 31A8                                      u2151 3080  
                                    _LATC 0004C0                                      u2400 33B2  
                                    u2320 32FC                                      u2240 31CC  
                                    u2160 3094                                      _LATD 0004C1  
                                    u2401 33AE                                      u2321 32F8  
                                    u2241 31C8                                      u2161 3090  
                                    _LATE 0004C2                                      u2410 33C6  
                                    u2330 330C                                      u2250 31DA  
                                    u2170 30D0                                      _LATF 0004C3  
                                    u2411 33C2                                      u2331 3308  
                                    u2251 31D6                                      u2171 30CC  
                                    u2420 33E0                                      u2340 3338  
                                    u2260 31EA                                      u2180 30DE  
                                    u2500 34CA                                      u1700 4072  
                                    u2421 33DC                                      u2341 3334  
                                    u2261 31E6                                      u2181 30DA  
                                    u2501 34C6                                      u1701 406E  
                                    u2430 341A                                      u2350 3348  
                                    u2270 321C                                      u2190 314C  
                                    u2510 34DA                                      u1710 4086  
                                    u2431 3416                                      u2351 3344  
                                    u2271 3218                                      u2191 3148  
                                    u2511 34D6                                      u1711 4082  
                                    u2440 342C                                      u2360 3364  
                                    u2280 322A                                      u2600 37AC  
                                    u2520 351A                                      u1720 40AE  
                                    u1800 3E56                                      u2441 3428  
                                    u2361 3360                                      u2281 3226  
                                    u2601 37A8                                      u2521 3516  
                                    u1721 40AA                                      u1801 3E52  
                                    u2450 343C                                      u2370 3374  
                                    u2290 3248                                      u2610 37DA  
                                    u2530 352C                                      u1730 40CE  
                                    u1810 3E66                                      _T2PR 000323  
                                    u2451 3438                                      u2371 3370  
                                    u2291 3244                                      u2611 37D6  
                                    u2531 3528                                      u1731 40CA  
                                    u1811 3E62                                      u2460 345C  
                                    u2380 3386                                      u2620 37F0  
                                    u2540 353C                                      u1740 40DE  
                                    u1820 3E74                                      u2700 2BF8  
                                    u2461 3458                                      u2381 3382  
                                    u2621 37EC                                      u2541 3538  
                                    u1741 40DA                                      u1821 3E70  
                                    u2701 2BF4                                      u2470 346E  
                                    u2390 339C                                      u2630 3804  
                                    u2550 3572                                      u1670 43C6  
                                    u1830 3EAE                                      u1750 3D2E  
                                    u2710 2D86                                      u2471 346A  
                                    u2391 3398                                      u2631 3800  
                                    u2551 356E                                      u1671 43C2  
                                    u1831 3EAA                                      u1751 3D2A  
                                    u2711 2D82                                      u1920 4112  
                                    u2480 348A                                      u2640 381E  
                                    u2560 3582                                      u1680 4010  
                                    u1840 3EBC                                      u1760 3D3C  
                                    u2720 2F76                                      u2800 2814  
                                    u1921 410E                                      u2481 3486  
                                    u2641 381A                                      u2561 357E  
                                    u1681 400C                                      u1841 3EB8  
                                    u1761 3D38                                      u2721 2F72  
                                    u2801 2810                                      u2650 3866  
                                    u2570 3720                                      u2490 34B8  
                                    u1690 4044                                      u1770 3D98  
                                    u2810 2832                                      u2730 258C  
                                    u2651 3862                                      u2491 34B4  
                                    u1771 3D94                                      u2811 282E  
                                    u2660 3894                                      u2580 377A  
                                    u1780 3DEE                                      u2820 2844  
                                    u2740 25BC                                      u2661 3890  
                                    u2581 3776                                      u1781 3DEA  
                                    u2821 2840                                      u2741 25B8  
                                    u2670 38CE                                      u2590 379A  
                                    u1790 3E38                                      u2830 28C6  
                                    u2750 25D2                                      u2671 38CA  
                                    u2591 3796                                      u2575 3716  
                                    u1695 403A                                      u1791 3E34  
                                    u2831 28C2                                      u2751 25CE  
                                    u2735 2582                                      u2680 2B46  
                                    u2840 2970                                      u2760 262C  
                                    u2841 296C                                      u2761 2628  
                                    u2690 2B84                                      u2770 264A  
                                    u2850 3FDA                                      u2691 2B80  
                                    u2771 2646                                      u2851 3FD6  
                                    u2780 265C                                      _PMD0 000060  
                                    u2685 2B3C                                      u2781 2658  
                                    _PMD1 000061                                      u2790 273A  
                                    u2791 2736                                      _PMD3 000063  
                                    _PMD4 000064                                      _PMD5 000065  
                                    _PMD6 000066                                      _PMD7 000067  
                                    _PMD8 000068                                      i2l80 44B8  
                                    i2l76 4598                                      i2l86 459E  
                                    _TMR2 000322                                      _WPUA 000401  
                                    _WPUB 000409                                      _WPUC 000411  
                                    _WPUD 000419                                      _WPUE 000421  
                                    _WPUF 000429                                      _half 2522  
                                    _main 3ED0                                      _sinf 254C  
                                    _sins 0600                                      _test 054F  
                            fp__updateDac 0000                                      fsr1h 0004E2  
                                    fsr2h 0004DA                                      fsr1l 0004E1  
                                    fsr2l 0004D9                                      prodh 0004F4  
                                    prodl 0004F3                                      start 001A  
               __end_of_SPI1_ExchangeByte 4500                              ___param_bank 000000  
                                   ??_dac 0504             __end_of_OSCILLATOR_Initialize 455A  
                           ___fltol@sign1 0545                                     _ADACT 0003F9  
                                   _ADCAP 0003F0                           __end_of___fladd 349E  
                                   ?_main 0501                                     _ADCLK 0003FA  
                                   _ADCNT 0003E6                                     _ADPCH 0003EC  
                                   _ADREF 0003F8                           __end_of___cosdf 3D1C  
                         __end_of___flneg 43E8                                     _ADRPT 0003E7  
                                   ?_sinf 05A0                           __end_of___flmul 38EC  
                         __end_of___flsub 432E          SPI1_Open@spi1UniqueConfiguration 0507  
                         __end_of___fltol 4100                                     _T2CON 000324  
                                   _T2HLT 000325                           __end_of___sindf 3B1E  
                                   _T2TMR 000322                                     _T2RST 000327  
                                   i2l300 44FA                                     i2l301 44FE  
                                   i2l261 4414                                     i2l361 4500  
                                   i2l365 451E                                     i2l369 43AC  
                                   i2l298 44EC                              ___sindf$1984 0588  
                            ___sindf$1985 058C                              ___sindf$1986 0590  
                                   _OSCEN 0000B3                                     _TRISA 0004C6  
                                   _TRISB 0004C7                                     _TRISC 0004C8  
                                   _TRISD 0004C9                                     _TRISE 0004CA  
                                   _TRISF 0004CB                          __end_of_TMR2_ISR 459A  
                         __end_of_pio2_1t 251A                                     _fabsf 4422  
                   ?_ADCC_StartConversion 0501                           __end_of_invpio2 2522  
                                   _toint 2526                                     pclath 0004FA  
                                   pclatu 0004FB                                     tablat 0004F5  
                                   sinf@n 05A4                                     sinf@x 05A0  
                                   sinf@y 05BA                                     status 0004D8  
                         __initialization 432E                              __end_of_half 2526  
                            __end_of_main 3FFA                              __end_of_sinf 2B06  
                 __end_of_TMR2_Initialize 4488               ?_INTERRUPT_InterruptManager 0501  
                _TMR2_SetInterruptHandler 4584                                    ??_main 054F  
                                  ??_sinf 054B                             __activetblptr 000003  
                                  ?_fabsf 0506                                    _ADACCH 0003E4  
                                  _ADACCL 0003E3                                    _ADACCU 0003E5  
                                  _ADACQH 0003EF                                    _ADACQL 0003EE  
                                  _ADCON0 0003F3                                    _ADCON1 0003F4  
                                  _ADCON2 0003F5                                    _ADCON3 0003F6  
                                  _ADERRH 0003DE                                    _ADERRL 0003DD  
                                  _ACTCON 0000AC                                    _ADLTHH 0003DA  
                                  _ADLTHL 0003D9                                    _ADRESH 0003EB  
                                  _ADRESL 0003EA                                    _ADPREH 0003F2  
                                  _ADPREL 0003F1                                    _ADSTAT 0003F7  
                                  _ADUTHH 0003DC                                    _ADUTHL 0003DB  
                                  _ANSELA 000400                                    _ANSELB 000408  
                                  _ANSELC 000410                                    _ANSELD 000418  
                                  _ANSELE 000420                                    _ANSELF 000428  
                                  _RB1I2C 000289                                    _RB2I2C 000288  
                                  _RC3I2C 000287                                    _RC4I2C 000286  
                                  _RC4PPS 000215                                    _ODCONA 000402  
                                  _ODCONB 00040A                                    _RC6PPS 000217  
                                  _ODCONC 000412                                    _ODCOND 00041A  
                                  _ODCONE 000422                                    _ODCONF 00042A  
                                  i2l2333 44E0                                    i2l2341 4512  
                                  i2l2335 44E6                                    i2l2343 4516  
                                  i2l2345 451C                                    i2l2337 4502  
                                  i2l3073 43F4                                    i2l2339 450C  
                                  i2l3075 4402                                    i2l3077 4410  
                                  i2l2551 436E                                    i2l2553 438A  
                                  i2l2555 438C                                    i2l2557 4398  
                                  i2l2813 4488                                    i2l2559 43A8  
                                  i2l2815 449E                                    i2l2921 4592  
                                  i2l2923 4594                                    _INLVLA 000404  
                                  _INLVLB 00040C                                    _INLVLC 000414  
                                  _INLVLD 00041C                                    _INLVLE 000424  
                                  _INLVLF 00042C                             ___rem_pio2f@n 059C  
                           ___rem_pio2f@t 0598                             ___rem_pio2f@u 058C  
                           ___rem_pio2f@x 057C                             ___rem_pio2f@y 0580  
                                  _OSCFRQ 0000B1                          __end_of___xxtofl 3ED0  
                       __end_of_SPI1_Open 41D6                                    _s1pio2 2546  
                                  _s2pio2 2542                                    _s3pio2 253E  
                                  _s4pio2 253A                                 ??___fladd 0535  
                                  _u8temp 0554                                 ??___cosdf 0541  
                               ??___flneg 0541                                 ??___flmul 051C  
                               ??___flsub 0545                                 ??___fltol 0541  
                               ??___sindf 0541                                    _pio2_1 251A  
                                  fabsf@u 050A                                    fabsf@x 0506  
                                  clear_0 4336                                    clear_1 4348  
                                  isa$std 000001                           _ADCC_Initialize 428C  
                          _PMD_Initialize 44BA                              __mediumconst 0000  
                                  sinf@ix 05BE                                    tblptrh 0004F7  
                                  tblptrl 0004F6                                    tblptru 0004F8  
                  ??_ADCC_StartConversion 0506  TMR2_SetInterruptHandler@InterruptHandler 0506  
                            ___xxtofl@arg 0510                              ___xxtofl@exp 050F  
                       _SYSTEM_Initialize 4520                              ___xxtofl@val 0506  
                              __accesstop 0560                   __end_of__initialization 4368  
                              ___flneg@f1 0578                     __end_of_TMR2_CallBack 44BA  
                      ?_SYSTEM_Initialize 0501                             ___rparam_used 000001  
                              ___fltol@f1 053D                            __pcstackCOMRAM 0501  
                     ??_SYSTEM_Initialize 0509                             __end_of_fabsf 4456  
                               ?_TMR2_ISR 0501                         ??_SPI1_Initialize 0506  
                           __end_of_toint 252A                          ?_TMR2_Initialize 0501  
                              __end_of_C0 253A                                __end_of_C1 2536  
                              __end_of_C2 2532                                __end_of_C3 252E  
                              __end_of_S1 2516                                __end_of_S2 2512  
                              __end_of_S3 250E                                __end_of_S4 250A  
                  __end_of_PMD_Initialize 44DE                     SPI1_ExchangeByte@data 0501  
                      _spi1_configuration 2501               ADCC_StartConversion@channel 0506  
                                 ??_fabsf 050A                 __end_of_SYSTEM_Initialize 453E  
                              __pbssBANK5 05CA                                __pbssBANK6 0600  
                                 IVTBASEH 00045E                                   IVTBASEL 00045D  
                                 IVTBASEU 00045F                                ??_TMR2_ISR 0504  
                 __end_of_ADCC_Initialize 42E8                             ??___rem_pio2f 0547  
                                 _ADFLTRH 0003E2                                   _ADFLTRL 0003E1  
                                 _ADPREVH 0003E9                                   _ADPREVL 0003E8  
                                 _ADSTPTH 0003E0                                   _ADSTPTL 0003DF  
                         ?_PMD_Initialize 0501                                 ?___xxtofl 0506  
                                 _OSCCON1 0000AD                                   _OSCCON3 0000AF  
                          ___rem_pio2f@fn 0594                            ___rem_pio2f@ix 0586  
                          ___rem_pio2f@ty 0582                                   _SPI1CLK 00008C  
                                 _SPI1RXB 000080                                   _SPI1TXB 000081  
                                 _OSCTUNE 0000B0                                   _SLRCONA 000403  
                                 _SLRCONB 00040B                                   _SLRCONC 000413  
                                 _SLRCOND 00041B                                   _SLRCONE 000423  
                                 _SLRCONF 00042B                                   __Hparam 0000  
                                 __Lparam 0000                ??_TMR2_SetInterruptHandler 0509  
                                 ___fladd 2FDE                                   ___cosdf 3B1E  
                                 ___flneg 43AE                                   ___flmul 349E  
                                 ___flsub 42E8                                   ___fltol 3FFA  
                                 ___sindf 38EC                                   _u8count 0553  
                            __psmallconst 2500                                   _u8value 0551  
                                 __pcinit 432E                                   __ramtop 2500  
                                 __ptext0 3ED0                                   __ptext1 254C  
                                 __ptext2 38EC                                   __ptext3 2B06  
                                 __ptext4 4422                                   __ptext5 3D1C  
                                 __ptext6 3FFA                                   __ptext7 42E8  
                                 __ptext8 43AE                                   __ptext9 3B1E  
                                 _pio2_1t 2516                     _OSCILLATOR_Initialize 453E  
                               _T2CONbits 000324                                ??___xxtofl 050A  
                     __end_of___rem_pio2f 2FDE                                   _invpio2 251E  
                ??_PIN_MANAGER_Initialize 0506                                 _T2HLTbits 000325  
                        ___rem_pio2f$1983 0590                      end_of_initialization 4368  
                               _T2RSTbits 000327                          ___rem_pio2f@F532 05CE  
                        ___rem_pio2f@sign 058A                         __end_of_updateDac 43AE  
                               _SPI1TCNTL 000082                                   postdec1 0004E5  
                                 postdec2 0004DD                                   postinc0 0004EE  
                                 postinc2 0004DE                          ?_ADCC_Initialize 0501  
                               _SPI1_Open 4100                               ___fladd@grs 053C  
                           ___xxtofl@sign 050E                                 _TRISCbits 0004C8  
                             ___flmul@grs 0522                           _SPI1_Initialize 455A  
            __end_of_INTERRUPT_Initialize 459E      __end_of_TMR2_DefaultInterruptHandler 45A0  
            _TMR2_DefaultInterruptHandler 459E                            __end_of_s1pio2 254A  
                          __end_of_s2pio2 2546                            __end_of_s3pio2 2542  
                          __end_of_s4pio2 253E                                ?_SPI1_Open 0501  
                             ___rem_pio2f 2B06                            __end_of_pio2_1 251E  
                  ?_OSCILLATOR_Initialize 0501                       start_initialization 432E  
                             __end_of_dac 4520                                ivt0x8_base 0008  
                        ??_PMD_Initialize 0506           fp__TMR2_DefaultInterruptHandler 0000  
           ?_TMR2_DefaultInterruptHandler 0501                                 ___fladd@a 0531  
                               ___fladd@b 052D                                 ___cosdf@r 0560  
                               ___cosdf@w 0570                                 ___cosdf@x 053D  
                               ___cosdf@z 0574                                 ___flmul@a 0518  
                               ___flmul@b 0514                               __pbssCOMRAM 054F  
                               ___flsub@a 0541                                 ___flsub@b 053D  
                           __pcstackBANK5 0560                   __end_of_SPI1_Initialize 4574  
                               ___sindf@r 0580                                 ___sindf@s 0594  
                               ___sindf@w 0584                                 ___sindf@x 057C  
                               ___sindf@z 0598                                 __pnvBANK5 05D3  
                               _main$1977 05C2                                 _main$1978 05C6  
                  _PIN_MANAGER_Initialize 41D6                                  ?___fladd 052D  
                                ?___cosdf 053D                                  ?___flneg 0578  
                                ?___flmul 0514                                  ?___flsub 053D  
                                ?___fltol 053D                                  ?___sindf 057C  
                             ??_SPI1_Open 0506              ??_INTERRUPT_InterruptManager 0504  
                               fabsf@F465 05CA                               __smallconst 2500  
                               _sinf$1602 05AC                                 _sinf$1603 05B0  
                               _sinf$1979 05B6                                  _T2CLKCON 000326  
                    _INTERRUPT_Initialize 459A                                  _LATDbits 0004C1  
                                _LATFbits 0004C3                             _TMR2_CallBack 4488  
                                _PIE3bits 0004A1                              _SPI1CON0bits 000084  
                                i2u107_40 44FA                                  i2u107_41 44F6  
                                i2u205_40 4402                                  i2u205_41 43FE  
                                i2u206_40 4410                                  i2u206_41 440C  
                                i2u147_40 43A8                                  i2u147_41 43A4  
                                i2u185_40 449E                                  i2u185_41 449A  
                                i2u186_48 44A4                                  i2u186_49 44B8  
                                _SPI1BAUD 000089                                  _PIR3bits 0004B1  
                                _SPI1CON0 000084                                  _SPI1CON1 000085  
                                _SPI1CON2 000086                                  _TMR2_ISR 4592  
                               _updateDac 436E                                _ADCON0bits 0003F3  
                              _ADCON1bits 0003F4                                _ADCON2bits 0003F5  
                              _ADCON3bits 0003F6            ??_TMR2_DefaultInterruptHandler 0501  
               ?_TMR2_SetInterruptHandler 0506                          ?_SPI1_Initialize 0501  
                             _INTCON0bits 0004D6                     ?_INTERRUPT_Initialize 0501  
                       ??_TMR2_Initialize 0509                            ?_TMR2_CallBack 0501  
                              _ADSTATbits 0003F7                                  __Hrparam 0000  
                                __Lrparam 0000                   ??_OSCILLATOR_Initialize 0506  
                            ?___rem_pio2f 057C                                ?_updateDac 0501  
                                dac@value 0502                                  ___xxtofl 3D1C  
                                __pivt0x8 0008                                  __ptext10 349E  
                                __ptext11 2FDE                                  __ptext20 428C  
                                __ptext12 4520                                  __ptext21 4100  
                                __ptext13 4456                                  __ptext30 0000  
                                __ptext22 4574                                  __ptext14 4584  
                                __ptext23 43E8                                  __ptext15 455A  
                                __ptext24 4592                                  __ptext16 44BA  
                                __ptext25 4488                                  __ptext17 41D6  
                                __ptext26 459E                                  __ptext18 453E  
                                __ptext27 436E                                  __ptext19 459A  
                                __ptext28 4500                                  __ptext29 44DE  
                    sinf@__xc8_float_word 05A8                                  isa$xinst 000000  
            __end_of_ADCC_StartConversion 4584        __end_of_INTERRUPT_InterruptManager 4422  
              _INTERRUPT_InterruptManager 43E8                    ??_INTERRUPT_Initialize 0506  
                                intlevel2 0000                           ??_TMR2_CallBack 0504  
                 ?_PIN_MANAGER_Initialize 0501                                  sinf@sign 05B4  
                              _SPI1SDIPPS 00026B                                _SPI1SCKPPS 00026A  
                             ??_updateDac 0504                             ___fladd@signs 0539  
          __end_of_PIN_MANAGER_Initialize 428C                         ??_ADCC_Initialize 0506  
                            ___fladd@aexp 053A                              ___fladd@bexp 053B  
                   _TMR2_InterruptHandler 05D3                              ___cosdf$1980 0564  
                            ___cosdf$1981 0568                              ___cosdf$1982 056C  
              __end_of_spi1_configuration 2506  
